
Exercise141.elf:     file format elf32-littlenios2
Exercise141.elf
architecture: nios2, flags 0x00000112:
EXEC_P, HAS_SYMS, D_PAGED
start address 0x080001bc

Program Header:
    LOAD off    0x00001000 vaddr 0x08000000 paddr 0x08000000 align 2**12
         filesz 0x00000020 memsz 0x00000020 flags r-x
    LOAD off    0x00001020 vaddr 0x08000020 paddr 0x08000020 align 2**12
         filesz 0x0000fe20 memsz 0x0000fe20 flags r-x
    LOAD off    0x00010e40 vaddr 0x0800fe40 paddr 0x08011958 align 2**12
         filesz 0x00001b18 memsz 0x00001b18 flags rw-
    LOAD off    0x00013470 vaddr 0x08013470 paddr 0x08013470 align 2**12
         filesz 0x00000000 memsz 0x0000015c flags rw-

Sections:
Idx Name          Size      VMA       LMA       File off  Algn
  0 .entry        00000020  08000000  08000000  00001000  2**5
                  CONTENTS, ALLOC, LOAD, READONLY, CODE
  1 .exceptions   0000019c  08000020  08000020  00001020  2**2
                  CONTENTS, ALLOC, LOAD, READONLY, CODE
  2 .text         0000f90c  080001bc  080001bc  000011bc  2**2
                  CONTENTS, ALLOC, LOAD, READONLY, CODE
  3 .rodata       00000378  0800fac8  0800fac8  00010ac8  2**2
                  CONTENTS, ALLOC, LOAD, READONLY, DATA
  4 .rwdata       00001b18  0800fe40  08011958  00010e40  2**2
                  CONTENTS, ALLOC, LOAD, DATA, SMALL_DATA
  5 .bss          0000015c  08013470  08013470  00013470  2**2
                  ALLOC, SMALL_DATA
  6 .sdram        00000000  080135cc  080135cc  00012958  2**0
                  CONTENTS
  7 .comment      00000039  00000000  00000000  00012958  2**0
                  CONTENTS, READONLY
  8 .debug_aranges 00000d08  00000000  00000000  00012998  2**3
                  CONTENTS, READONLY, DEBUGGING
  9 .debug_info   00023b68  00000000  00000000  000136a0  2**0
                  CONTENTS, READONLY, DEBUGGING
 10 .debug_abbrev 00009089  00000000  00000000  00037208  2**0
                  CONTENTS, READONLY, DEBUGGING
 11 .debug_line   0000afca  00000000  00000000  00040291  2**0
                  CONTENTS, READONLY, DEBUGGING
 12 .debug_frame  00002358  00000000  00000000  0004b25c  2**2
                  CONTENTS, READONLY, DEBUGGING
 13 .debug_str    000034de  00000000  00000000  0004d5b4  2**0
                  CONTENTS, READONLY, DEBUGGING
 14 .debug_loc    0001704e  00000000  00000000  00050a92  2**0
                  CONTENTS, READONLY, DEBUGGING
 15 .debug_alt_sim_info 00000010  00000000  00000000  00067ae0  2**2
                  CONTENTS, READONLY, DEBUGGING
 16 .debug_ranges 00001338  00000000  00000000  00067af0  2**3
                  CONTENTS, READONLY, DEBUGGING
 17 .thread_model 00000003  00000000  00000000  0006c1f3  2**0
                  CONTENTS, READONLY
 18 .cpu          0000000c  00000000  00000000  0006c1f6  2**0
                  CONTENTS, READONLY
 19 .qsys         00000001  00000000  00000000  0006c202  2**0
                  CONTENTS, READONLY
 20 .simulation_enabled 00000001  00000000  00000000  0006c203  2**0
                  CONTENTS, READONLY
 21 .stderr_dev   0000000b  00000000  00000000  0006c204  2**0
                  CONTENTS, READONLY
 22 .stdin_dev    0000000b  00000000  00000000  0006c20f  2**0
                  CONTENTS, READONLY
 23 .stdout_dev   0000000b  00000000  00000000  0006c21a  2**0
                  CONTENTS, READONLY
 24 .sopc_system_name 0000000b  00000000  00000000  0006c225  2**0
                  CONTENTS, READONLY
 25 .quartus_project_dir 00000016  00000000  00000000  0006c230  2**0
                  CONTENTS, READONLY
 26 .jdi          0000437f  00000000  00000000  0006c246  2**0
                  CONTENTS, READONLY
 27 .sopcinfo     00067d23  00000000  00000000  000705c5  2**0
                  CONTENTS, READONLY
SYMBOL TABLE:
08000000 l    d  .entry	00000000 .entry
08000020 l    d  .exceptions	00000000 .exceptions
080001bc l    d  .text	00000000 .text
0800fac8 l    d  .rodata	00000000 .rodata
0800fe40 l    d  .rwdata	00000000 .rwdata
08013470 l    d  .bss	00000000 .bss
080135cc l    d  .sdram	00000000 .sdram
00000000 l    d  .comment	00000000 .comment
00000000 l    d  .debug_aranges	00000000 .debug_aranges
00000000 l    d  .debug_info	00000000 .debug_info
00000000 l    d  .debug_abbrev	00000000 .debug_abbrev
00000000 l    d  .debug_line	00000000 .debug_line
00000000 l    d  .debug_frame	00000000 .debug_frame
00000000 l    d  .debug_str	00000000 .debug_str
00000000 l    d  .debug_loc	00000000 .debug_loc
00000000 l    d  .debug_alt_sim_info	00000000 .debug_alt_sim_info
00000000 l    d  .debug_ranges	00000000 .debug_ranges
00000000 l    df *ABS*	00000000 ../Exercise141_bsp//obj/HAL/src/crt0.o
080001f4 l       .text	00000000 alt_after_alt_main
00000000 l    df *ABS*	00000000 alt_exception_entry.o
08000094 l       .exceptions	00000000 alt_exception_unknown
00000000 l    df *ABS*	00000000 alt_irq_handler.c
00000000 l    df *ABS*	00000000 Touchscreen.c
00000000 l    df *ABS*	00000000 hello_world.c
00000000 l    df *ABS*	00000000 printf.c
00000000 l    df *ABS*	00000000 puts.c
00000000 l    df *ABS*	00000000 strlen.c
00000000 l    df *ABS*	00000000 vfprintf.c
0800fb6e l     O .rodata	00000010 zeroes.4155
0800fb7e l     O .rodata	00000010 blanks.4154
00000000 l    df *ABS*	00000000 wsetup.c
00000000 l    df *ABS*	00000000 dtoa.c
08002a18 l     F .text	00000228 quorem
00000000 l    df *ABS*	00000000 fflush.c
00000000 l    df *ABS*	00000000 findfp.c
080044f0 l     F .text	00000008 __fp_lock
080044f8 l     F .text	00000008 __fp_unlock
00000000 l    df *ABS*	00000000 mallocr.c
00000000 l    df *ABS*	00000000 fvwrite.c
00000000 l    df *ABS*	00000000 fwalk.c
00000000 l    df *ABS*	00000000 impure.c
0800fe40 l     O .rwdata	00000424 impure_data
00000000 l    df *ABS*	00000000 locale.c
08010284 l     O .rwdata	00000020 lc_ctype_charset
08010264 l     O .rwdata	00000020 lc_message_charset
080102a4 l     O .rwdata	00000038 lconv
00000000 l    df *ABS*	00000000 makebuf.c
00000000 l    df *ABS*	00000000 mallocr.c
00000000 l    df *ABS*	00000000 memchr.c
00000000 l    df *ABS*	00000000 memcpy.c
00000000 l    df *ABS*	00000000 memmove.c
00000000 l    df *ABS*	00000000 memset.c
00000000 l    df *ABS*	00000000 mprec.c
0800fbb0 l     O .rodata	0000000c p05.2652
00000000 l    df *ABS*	00000000 mallocr.c
00000000 l    df *ABS*	00000000 s_fpclassify.c
00000000 l    df *ABS*	00000000 sbrkr.c
00000000 l    df *ABS*	00000000 stdio.c
00000000 l    df *ABS*	00000000 strcmp.c
00000000 l    df *ABS*	00000000 vfprintf.c
08007974 l     F .text	000000fc __sprint_r.part.0
0800fce4 l     O .rodata	00000010 blanks.4099
0800fcd4 l     O .rodata	00000010 zeroes.4100
00000000 l    df *ABS*	00000000 writer.c
00000000 l    df *ABS*	00000000 closer.c
00000000 l    df *ABS*	00000000 mallocr.c
00000000 l    df *ABS*	00000000 fclose.c
00000000 l    df *ABS*	00000000 fputwc.c
00000000 l    df *ABS*	00000000 fstatr.c
00000000 l    df *ABS*	00000000 int_errno.c
00000000 l    df *ABS*	00000000 isattyr.c
00000000 l    df *ABS*	00000000 lseekr.c
00000000 l    df *ABS*	00000000 readr.c
00000000 l    df *ABS*	00000000 wbuf.c
00000000 l    df *ABS*	00000000 wcrtomb.c
00000000 l    df *ABS*	00000000 wctomb_r.c
00000000 l    df *ABS*	00000000 libgcc2.c
00000000 l    df *ABS*	00000000 libgcc2.c
00000000 l    df *ABS*	00000000 lib2-divmod.c
0800a59c l     F .text	00000070 udivmodsi4
00000000 l    df *ABS*	00000000 lib2-mul.c
00000000 l    df *ABS*	00000000 adddf3.c
00000000 l    df *ABS*	00000000 divdf3.c
00000000 l    df *ABS*	00000000 eqdf2.c
00000000 l    df *ABS*	00000000 gedf2.c
00000000 l    df *ABS*	00000000 ledf2.c
00000000 l    df *ABS*	00000000 muldf3.c
00000000 l    df *ABS*	00000000 subdf3.c
00000000 l    df *ABS*	00000000 fixdfsi.c
00000000 l    df *ABS*	00000000 floatsidf.c
00000000 l    df *ABS*	00000000 floatunsidf.c
00000000 l    df *ABS*	00000000 libgcc2.c
00000000 l    df *ABS*	00000000 libgcc2.c
00000000 l    df *ABS*	00000000 alt_close.c
0800ce5c l     F .text	00000050 alt_get_errno
00000000 l    df *ABS*	00000000 alt_dev.c
0800cf7c l     F .text	0000002c alt_dev_null_write
00000000 l    df *ABS*	00000000 alt_errno.c
00000000 l    df *ABS*	00000000 alt_fstat.c
0800cfa8 l     F .text	00000050 alt_get_errno
00000000 l    df *ABS*	00000000 alt_isatty.c
0800d0ac l     F .text	00000050 alt_get_errno
00000000 l    df *ABS*	00000000 alt_load.c
0800d1a4 l     F .text	00000064 alt_load_section
00000000 l    df *ABS*	00000000 alt_lseek.c
0800d288 l     F .text	00000050 alt_get_errno
00000000 l    df *ABS*	00000000 alt_main.c
00000000 l    df *ABS*	00000000 alt_malloc_lock.c
00000000 l    df *ABS*	00000000 alt_read.c
0800d468 l     F .text	00000050 alt_get_errno
00000000 l    df *ABS*	00000000 alt_release_fd.c
00000000 l    df *ABS*	00000000 alt_sbrk.c
08011948 l     O .rwdata	00000004 heap_end
00000000 l    df *ABS*	00000000 alt_write.c
0800d6e0 l     F .text	00000050 alt_get_errno
00000000 l    df *ABS*	00000000 alt_sys_init.c
0800d824 l     F .text	00000038 alt_dev_reg
0801088c l     O .rwdata	00001060 jtag_uart_0
080118ec l     O .rwdata	0000002c character_lcd_0
00000000 l    df *ABS*	00000000 altera_avalon_jtag_uart_fd.c
00000000 l    df *ABS*	00000000 altera_avalon_jtag_uart_init.c
0800db24 l     F .text	000001fc altera_avalon_jtag_uart_irq
0800dd20 l     F .text	000000a4 altera_avalon_jtag_uart_timeout
00000000 l    df *ABS*	00000000 altera_avalon_jtag_uart_ioctl.c
00000000 l    df *ABS*	00000000 altera_avalon_jtag_uart_read.c
00000000 l    df *ABS*	00000000 altera_avalon_jtag_uart_write.c
00000000 l    df *ABS*	00000000 altera_avalon_timer_sc.c
0800e338 l     F .text	00000074 alt_avalon_timer_sc_irq
00000000 l    df *ABS*	00000000 altera_up_avalon_character_lcd.c
00000000 l    df *ABS*	00000000 alt_alarm_start.c
00000000 l    df *ABS*	00000000 alt_dcache_flush_all.c
00000000 l    df *ABS*	00000000 alt_dev_llist_insert.c
0800ea54 l     F .text	00000050 alt_get_errno
00000000 l    df *ABS*	00000000 alt_do_ctors.c
00000000 l    df *ABS*	00000000 alt_do_dtors.c
00000000 l    df *ABS*	00000000 alt_find_dev.c
00000000 l    df *ABS*	00000000 alt_icache_flush_all.c
00000000 l    df *ABS*	00000000 alt_iic.c
00000000 l    df *ABS*	00000000 alt_iic_isr_register.c
00000000 l    df *ABS*	00000000 alt_io_redirect.c
0800ef70 l     F .text	000000e0 alt_open_fd
00000000 l    df *ABS*	00000000 alt_irq_vars.c
00000000 l    df *ABS*	00000000 alt_open.c
0800f0c8 l     F .text	00000050 alt_get_errno
0800f118 l     F .text	000000f4 alt_file_locked
00000000 l    df *ABS*	00000000 alt_tick.c
00000000 l    df *ABS*	00000000 altera_nios2_qsys_irq.c
00000000 l    df *ABS*	00000000 alt_find_file.c
00000000 l    df *ABS*	00000000 alt_get_fd.c
00000000 l    df *ABS*	00000000 atexit.c
00000000 l    df *ABS*	00000000 exit.c
00000000 l    df *ABS*	00000000 memcmp.c
00000000 l    df *ABS*	00000000 __atexit.c
00000000 l    df *ABS*	00000000 __call_atexit.c
00000000 l    df *ABS*	00000000 alt_exit.c
08006ff0 g     F .text	00000074 _mprec_log10
080070dc g     F .text	00000088 __any_on
0800943c g     F .text	00000064 _isatty_r
0800fbbc g     O .rodata	00000028 __mprec_tinytens
0800d3b0 g     F .text	00000078 alt_main
08000610 g     F .text	000000b8 _puts_r
080134cc g     O .bss	00000100 alt_irq
080094a0 g     F .text	0000006c _lseek_r
08011958 g       *ABS*	00000000 __flash_rwdata_start
0800e4a8 g     F .text	00000038 alt_up_character_lcd_send_cmd
0800b8f0 g     F .text	00000084 .hidden __eqdf2
080135cc g       *ABS*	00000000 __alt_heap_start
080005d4 g     F .text	0000003c printf
08009714 g     F .text	0000009c _wcrtomb_r
08000364 g     F .text	00000088 GetPress
0800786c g     F .text	0000005c __sseek
0800459c g     F .text	0000019c __sinit
08009578 g     F .text	00000180 __swbuf_r
080052ac g     F .text	00000070 _setlocale_r
080002c8 g     F .text	00000030 WaitForTouch
0800450c g     F .text	00000078 __sfmoreglue
0800d448 g     F .text	00000020 __malloc_unlock
08000474 g     F .text	0000005c putcharTouchscreen
08005eec g     F .text	0000013c memmove
08004584 g     F .text	00000018 _cleanup
0800613c g     F .text	000000a8 _Balloc
0800b974 g     F .text	000000d8 .hidden __gtdf2
00000000  w      *UND*	00000000 __errno
0800e434 g     F .text	00000074 get_DDRAM_addr
08000000 g     F .entry	0000000c __reset
08000020 g       *ABS*	00000000 __flash_exceptions_start
080093d4 g     F .text	00000068 _fstat_r
08013488 g     O .bss	00000004 errno
080077e8 g     F .text	00000008 __seofread
08013490 g     O .bss	00000004 alt_argv
08019918 g       *ABS*	00000000 _gp
0801070c g     O .rwdata	00000180 alt_fd_list
080003ec g     F .text	00000088 GetRelease
0800ebfc g     F .text	00000090 alt_find_dev
08005de0 g     F .text	0000010c memcpy
0800e634 g     F .text	00000050 alt_up_character_lcd_write_fd
08004500 g     F .text	0000000c _cleanup_r
0800cc40 g     F .text	000000d0 .hidden __floatsidf
0800f050 g     F .text	00000078 alt_io_redirect
0800ba4c g     F .text	000000ec .hidden __ltdf2
0800fac8 g       *ABS*	00000000 __DTOR_END__
080006c8 g     F .text	00000014 puts
080076c8 g     F .text	00000068 __fpclassifyd
08006f50 g     F .text	000000a0 __ratio
08008ed0 g     F .text	00000024 __vfiprintf_internal
0800df18 g     F .text	00000208 altera_avalon_jtag_uart_read
00000000  w      *UND*	00000000 malloc
080005a8 g     F .text	0000002c _printf_r
0800a6a0 g     F .text	00000008 .hidden __udivsi3
0800d0fc g     F .text	000000a8 isatty
0800fc0c g     O .rodata	000000c8 __mprec_tens
0800531c g     F .text	0000000c __locale_charset
08013484 g     O .bss	00000004 __malloc_top_pad
08011920 g     O .rwdata	00000004 __mb_cur_max
0800534c g     F .text	0000000c _localeconv_r
0800656c g     F .text	0000003c __i2b
08004ca0 g     F .text	000004ac __sfvwrite_r
08007730 g     F .text	00000064 _sbrk_r
0800950c g     F .text	0000006c _read_r
08011940 g     O .rwdata	00000004 alt_max_fd
0800909c g     F .text	00000128 _fclose_r
080044c0 g     F .text	00000030 fflush
08013480 g     O .bss	00000004 __malloc_max_sbrked_mem
0800a6d8 g     F .text	0000087c .hidden __adddf3
08006d1c g     F .text	000000f0 __b2d
08009f68 g     F .text	00000634 .hidden __umoddi3
0800d2d8 g     F .text	000000d8 lseek
08011918 g     O .rwdata	00000004 _global_impure_ptr
08007164 g     F .text	00000564 _realloc_r
080135cc g       *ABS*	00000000 __bss_end
0800ee80 g     F .text	000000f0 alt_iic_isr_register
0800f400 g     F .text	00000104 alt_tick
08009914 g     F .text	00000654 .hidden __udivdi3
080091d8 g     F .text	00000184 _fputwc_r
0800fbe4 g     O .rodata	00000028 __mprec_bigtens
08006350 g     F .text	00000104 __s2b
0800cd10 g     F .text	000000a0 .hidden __floatunsidf
08006aac g     F .text	00000060 __mcmp
08004864 g     F .text	00000018 __fp_lock_all
0800ee34 g     F .text	0000004c alt_ic_irq_enabled
0800f368 g     F .text	00000098 alt_alarm_stop
08013498 g     O .bss	00000004 alt_irq_active
080000ec g     F .exceptions	000000d0 alt_irq_handler
080106e4 g     O .rwdata	00000028 alt_dev_null
0800e8c4 g     F .text	00000034 alt_up_character_lcd_cursor_blink_on
0800ea38 g     F .text	0000001c alt_dcache_flush_all
08006454 g     F .text	00000068 __hi0bits
0800cbc0 g     F .text	00000080 .hidden __fixdfsi
08011958 g       *ABS*	00000000 __ram_rwdata_end
08011938 g     O .rwdata	00000008 alt_dev_list
0800d730 g     F .text	000000f4 write
0800fe40 g       *ABS*	00000000 __ram_rodata_end
0800cff8 g     F .text	000000b4 fstat
0800ba4c g     F .text	000000ec .hidden __ledf2
0800028c g     F .text	0000003c ScreenTouched
08006814 g     F .text	00000148 __pow5mult
08007a88 g     F .text	00001448 ___vfiprintf_internal_r
08013478 g     O .bss	00000004 __nlocale_changed
0800a6a8 g     F .text	00000008 .hidden __umodsi3
080135cc g       *ABS*	00000000 end
0800da64 g     F .text	000000c0 altera_avalon_jtag_uart_init
0800fac8 g       *ABS*	00000000 __CTOR_LIST__
0c000000 g       *ABS*	00000000 __alt_stack_pointer
0800e3ac g     F .text	00000088 alt_avalon_timer_sc_init
0800cdb0 g     F .text	000000ac .hidden __clzsi2
0800e120 g     F .text	00000218 altera_avalon_jtag_uart_write
08004854 g     F .text	00000004 __sfp_lock_acquire
08005cf8 g     F .text	000000e8 memchr
0800e550 g     F .text	00000074 alt_up_character_lcd_write
08000768 g     F .text	00002154 ___vfprintf_internal_r
080049d0 g     F .text	000002d0 _free_r
08005328 g     F .text	00000010 __locale_mb_cur_max
0800f8f0 g     F .text	000001a4 __call_exitprocs
08013474 g     O .bss	00000004 __mlocale_changed
08011924 g     O .rwdata	00000004 __malloc_sbrk_base
080001bc g     F .text	0000003c _start
0801349c g     O .bss	00000004 _alt_tick_rate
0800695c g     F .text	00000150 __lshift
080134a0 g     O .bss	00000004 _alt_nticks
0800d4b8 g     F .text	000000f8 read
0800d890 g     F .text	00000070 alt_sys_init
0800e780 g     F .text	00000088 alt_up_character_lcd_shift_display
0800f7d4 g     F .text	0000011c __register_exitproc
080002f8 g     F .text	0000003c ScreenReleased
080065a8 g     F .text	0000026c __multiply
0800e808 g     F .text	00000088 alt_up_character_lcd_erase_pos
0800ddc4 g     F .text	00000068 altera_avalon_jtag_uart_close
0800a6b0 g     F .text	00000028 .hidden __mulsi3
0800fe40 g       *ABS*	00000000 __ram_rwdata_start
0800fac8 g       *ABS*	00000000 __ram_rodata_start
080134a4 g     O .bss	00000028 __malloc_current_mallinfo
08006e0c g     F .text	00000144 __d2b
0800d900 g     F .text	00000060 altera_avalon_jtag_uart_read_fd
0800f638 g     F .text	000000d4 alt_get_fd
08008f60 g     F .text	00000064 _close_r
0800f758 g     F .text	0000007c memcmp
0800d9c0 g     F .text	00000050 altera_avalon_jtag_uart_close_fd
080135cc g       *ABS*	00000000 __alt_stack_base
0800da10 g     F .text	00000054 altera_avalon_jtag_uart_ioctl_fd
080028e0 g     F .text	00000138 __swsetup_r
0800af54 g     F .text	0000099c .hidden __divdf3
08004738 g     F .text	0000011c __sfp
08007064 g     F .text	00000078 __copybits
080102dc g     O .rwdata	00000408 __malloc_av_
08004860 g     F .text	00000004 __sinit_lock_release
0800bb38 g     F .text	00000800 .hidden __muldf3
08007794 g     F .text	00000054 __sread
0800f524 g     F .text	00000114 alt_find_file
0800eaa4 g     F .text	000000a0 alt_dev_llist_insert
0800d428 g     F .text	00000020 __malloc_lock
0800d630 g     F .text	000000b0 sbrk
0800427c g     F .text	00000244 _fflush_r
08008fc4 g     F .text	000000d8 _calloc_r
08013470 g       *ABS*	00000000 __bss_start
08006028 g     F .text	00000114 memset
08000524 g     F .text	00000084 main
08013494 g     O .bss	00000004 alt_envp
0801347c g     O .bss	00000004 __malloc_max_total_mem
0800d960 g     F .text	00000060 altera_avalon_jtag_uart_write_fd
080096f8 g     F .text	0000001c __swbuf
0800e6f8 g     F .text	00000088 alt_up_character_lcd_shift_cursor
080078c8 g     F .text	00000008 __sclose
0c000000 g       *ABS*	00000000 __alt_heap_limit
080091c4 g     F .text	00000014 fclose
08002c40 g     F .text	0000163c _dtoa_r
08005534 g     F .text	000007c4 _malloc_r
08009888 g     F .text	00000030 __ascii_wctomb
08011944 g     O .rwdata	00000004 alt_errno
0800514c g     F .text	000000a8 _fwalk
0800a60c g     F .text	00000048 .hidden __divsi3
0800e510 g     F .text	00000040 alt_up_character_lcd_open_dev
08004894 g     F .text	0000013c _malloc_trim_r
0800fac8 g       *ABS*	00000000 __CTOR_END__
0800e4e0 g     F .text	00000030 alt_up_character_lcd_init
080078d0 g     F .text	000000a4 strcmp
0800fac8 g       *ABS*	00000000 __flash_rodata_start
0800fac8 g       *ABS*	00000000 __DTOR_LIST__
0800b8f0 g     F .text	00000084 .hidden __nedf2
0800d85c g     F .text	00000034 alt_irq_init
0800d5b0 g     F .text	00000080 alt_release_fd
0800e890 g     F .text	00000034 alt_up_character_lcd_cursor_off
0800fcf4 g     O .rodata	00000100 .hidden __clz_tab
08013470 g     O .bss	00000004 _PathLocale
0800f70c g     F .text	00000014 atexit
08008ef4 g     F .text	0000006c _write_r
08005358 g     F .text	0000001c setlocale
0801191c g     O .rwdata	00000004 _impure_ptr
0801348c g     O .bss	00000004 alt_argc
0800eba0 g     F .text	0000005c _do_dtors
08000334 g     F .text	00000030 WaitForRelease
08005344 g     F .text	00000008 __locale_cjk_lang
08000020 g       .exceptions	00000000 alt_irq_entry
08006cbc g     F .text	00000060 __ulp
0800487c g     F .text	00000018 __fp_unlock_all
08011930 g     O .rwdata	00000008 alt_fs_list
08000020 g       *ABS*	00000000 __ram_exceptions_start
08005374 g     F .text	0000000c localeconv
0800eca8 g     F .text	00000050 alt_ic_isr_register
08011958 g       *ABS*	00000000 _edata
080135cc g       *ABS*	00000000 _end
080001bc g       *ABS*	00000000 __ram_exceptions_end
0800de2c g     F .text	000000ec altera_avalon_jtag_uart_ioctl
0800ed94 g     F .text	000000a0 alt_ic_irq_disable
080077f0 g     F .text	0000007c __swrite
08011928 g     O .rwdata	00000004 __malloc_trim_threshold
0800f504 g     F .text	00000020 altera_nios2_qsys_irq_init
08005338 g     F .text	0000000c __locale_msgcharset
0800f720 g     F .text	00000038 exit
080051f4 g     F .text	000000b8 _fwalk_reent
08006b0c g     F .text	000001b0 __mdiff
0800a654 g     F .text	0000004c .hidden __modsi3
080004d0 g     F .text	00000054 getcharTouchscreen
0c000000 g       *ABS*	00000000 __alt_data_end
08000020 g     F .exceptions	00000000 alt_exception
08004858 g     F .text	00000004 __sfp_lock_release
08000000 g       *ABS*	00000000 __alt_mem_sdram
0800e5c4 g     F .text	00000070 alt_up_character_lcd_string
0800fa94 g     F .text	00000034 _exit
0800e8f8 g     F .text	00000140 alt_alarm_start
08005380 g     F .text	000001b4 __smakebuf_r
080006dc g     F .text	0000008c strlen
0800f20c g     F .text	0000015c open
080001f8 g     F .text	00000094 Init_Touchscreen
0800b974 g     F .text	000000d8 .hidden __gedf2
0801192c g     O .rwdata	00000004 __wctomb
08007a70 g     F .text	00000018 __sprint_r
0800ec8c g     F .text	0000001c alt_icache_flush_all
0800e684 g     F .text	00000074 alt_up_character_lcd_set_cursor_pos
0801194c g     O .rwdata	00000004 alt_priority_mask
0800ecf8 g     F .text	0000009c alt_ic_irq_enable
080028bc g     F .text	00000024 __vfprintf_internal
080098b8 g     F .text	0000005c _wctomb_r
0800c338 g     F .text	00000888 .hidden __subdf3
080064bc g     F .text	000000b0 __lo0bits
08011950 g     O .rwdata	00000008 alt_alarm_list
0800eb44 g     F .text	0000005c _do_ctors
080097b0 g     F .text	000000d8 wcrtomb
0800ceac g     F .text	000000d0 close
0800d208 g     F .text	00000080 alt_load
0800935c g     F .text	00000078 fputwc
00000000  w      *UND*	00000000 free
0800485c g     F .text	00000004 __sinit_lock_acquire
0800620c g     F .text	00000144 __multadd
080061e4 g     F .text	00000028 _Bfree



Disassembly of section .entry:

08000000 <__reset>:
 * Jump to the _start entry point in the .text section if reset code
 * is allowed or if optimizing for RTL simulation.
 */
#if defined(ALT_ALLOW_CODE_AT_RESET) || defined(ALT_SIM_OPTIMIZE)
    /* Jump to the _start entry point in the .text section. */
    movhi r1, %hi(_start)
 8000000:	00420034 	movhi	at,2048
    ori r1, r1, %lo(_start)
 8000004:	08406f14 	ori	at,at,444
    jmp r1
 8000008:	0800683a 	jmp	at
	...

Disassembly of section .exceptions:

08000020 <alt_exception>:

#else /* ALT_EXCEPTION_STACK disabled */
        /* 
         * Reserve space on normal stack for registers about to be pushed.
         */
        addi  sp, sp, -76
 8000020:	deffed04 	addi	sp,sp,-76
         * documentation for details).
         *
         * Leave a gap in the stack frame at 4(sp) for the muldiv handler to
         * store zero into.
         */
        stw   ra,  0(sp)
 8000024:	dfc00015 	stw	ra,0(sp)
        stw   r1,   8(sp)
 8000028:	d8400215 	stw	at,8(sp)
        stw   r2,  12(sp)
 800002c:	d8800315 	stw	r2,12(sp)
        stw   r3,  16(sp)
 8000030:	d8c00415 	stw	r3,16(sp)
        stw   r4,  20(sp)
 8000034:	d9000515 	stw	r4,20(sp)
        stw   r5,  24(sp)
 8000038:	d9400615 	stw	r5,24(sp)
        stw   r6,  28(sp)
 800003c:	d9800715 	stw	r6,28(sp)
        stw   r7,  32(sp)
 8000040:	d9c00815 	stw	r7,32(sp)
        rdctl r5, estatus   /* Read early to avoid usage stall */
 8000044:	000b307a 	rdctl	r5,estatus
        stw   r8,  36(sp)
 8000048:	da000915 	stw	r8,36(sp)
        stw   r9,  40(sp)
 800004c:	da400a15 	stw	r9,40(sp)
        stw   r10, 44(sp)
 8000050:	da800b15 	stw	r10,44(sp)
        stw   r11, 48(sp)
 8000054:	dac00c15 	stw	r11,48(sp)
        stw   r12, 52(sp)
 8000058:	db000d15 	stw	r12,52(sp)
        stw   r13, 56(sp)
 800005c:	db400e15 	stw	r13,56(sp)
        stw   r14, 60(sp)
 8000060:	db800f15 	stw	r14,60(sp)
        stw   r15, 64(sp)
 8000064:	dbc01015 	stw	r15,64(sp)
        /*
         * ea-4 contains the address of the instruction being executed
         * when the exception occured. For interrupt exceptions, we will
         * will be re-issue the isntruction. Store it in 72(sp)
         */
        stw   r5,  68(sp)  /* estatus */
 8000068:	d9401115 	stw	r5,68(sp)
        addi  r15, ea, -4  /* instruction that caused exception */
 800006c:	ebffff04 	addi	r15,ea,-4
        stw   r15,  72(sp)
 8000070:	dbc01215 	stw	r15,72(sp)
#else
        /*
         * Test to see if the exception was a software exception or caused 
         * by an external interrupt, and vector accordingly.
         */
        rdctl r4, ipending
 8000074:	0009313a 	rdctl	r4,ipending
        andi  r2, r5, 1
 8000078:	2880004c 	andi	r2,r5,1
        beq   r2, zero, .Lnot_irq
 800007c:	10000326 	beq	r2,zero,800008c <alt_exception+0x6c>
        beq   r4, zero, .Lnot_irq
 8000080:	20000226 	beq	r4,zero,800008c <alt_exception+0x6c>
        /*
         * Now that all necessary registers have been preserved, call 
         * alt_irq_handler() to process the interrupts.
         */

        call alt_irq_handler
 8000084:	80000ec0 	call	80000ec <alt_irq_handler>

        .section .exceptions.irqreturn, "xa"

        br    .Lexception_exit
 8000088:	00000306 	br	8000098 <alt_exception_unknown+0x4>
         * upon completion, so we write ea (address of instruction *after*
         * the one where the exception occured) into 72(sp). The actual
         * instruction that caused the exception is written in r2, which these
         * handlers will utilize.
         */
        stw   ea,  72(sp)  /* Don't re-issue */
 800008c:	df401215 	stw	ea,72(sp)
        ldw   r2, -4(ea)   /* Instruction that caused exception */
 8000090:	e8bfff17 	ldw	r2,-4(ea)

08000094 <alt_exception_unknown>:
#ifdef NIOS2_HAS_DEBUG_STUB
       /*
        *  Either tell the user now (if there is a debugger attached) or go into
        *  the debug monitor which will loop until a debugger is attached.
        */
        break
 8000094:	003da03a 	break	0
        /* 
         * Restore the saved registers, so that all general purpose registers 
         * have been restored to their state at the time the interrupt occured.
         */

        ldw   r5,  68(sp)
 8000098:	d9401117 	ldw	r5,68(sp)
        ldw   ea,  72(sp)  /* This becomes the PC once eret is executed */
 800009c:	df401217 	ldw	ea,72(sp)
        ldw   ra,   0(sp)
 80000a0:	dfc00017 	ldw	ra,0(sp)

        wrctl estatus, r5
 80000a4:	2801707a 	wrctl	estatus,r5

        ldw   r1,   8(sp)
 80000a8:	d8400217 	ldw	at,8(sp)
        ldw   r2,  12(sp)
 80000ac:	d8800317 	ldw	r2,12(sp)
        ldw   r3,  16(sp)
 80000b0:	d8c00417 	ldw	r3,16(sp)
        ldw   r4,  20(sp)
 80000b4:	d9000517 	ldw	r4,20(sp)
        ldw   r5,  24(sp)
 80000b8:	d9400617 	ldw	r5,24(sp)
        ldw   r6,  28(sp)
 80000bc:	d9800717 	ldw	r6,28(sp)
        ldw   r7,  32(sp)
 80000c0:	d9c00817 	ldw	r7,32(sp)

#if defined(ALT_EXCEPTION_STACK) && defined(ALT_STACK_CHECK)
        ldw   et, %gprel(alt_exception_old_stack_limit)(gp)
#endif

        ldw   r8,  36(sp)
 80000c4:	da000917 	ldw	r8,36(sp)
        ldw   r9,  40(sp)
 80000c8:	da400a17 	ldw	r9,40(sp)
        ldw   r10, 44(sp)
 80000cc:	da800b17 	ldw	r10,44(sp)
        ldw   r11, 48(sp)
 80000d0:	dac00c17 	ldw	r11,48(sp)
        ldw   r12, 52(sp)
 80000d4:	db000d17 	ldw	r12,52(sp)
        ldw   r13, 56(sp)
 80000d8:	db400e17 	ldw	r13,56(sp)
        ldw   r14, 60(sp)
 80000dc:	db800f17 	ldw	r14,60(sp)
        ldw   r15, 64(sp)
 80000e0:	dbc01017 	ldw	r15,64(sp)
        stw   et, %gprel(alt_stack_limit_value)(gp)
        stw   zero, %gprel(alt_exception_old_stack_limit)(gp)
#endif /* ALT_STACK_CHECK */
        ldw   sp,  76(sp)
#else /* ALT_EXCEPTION_STACK disabled */
        addi  sp, sp, 76
 80000e4:	dec01304 	addi	sp,sp,76

        /*
         * Return to the interrupted instruction.
         */

        eret
 80000e8:	ef80083a 	eret

080000ec <alt_irq_handler>:
 * instruction is present if the macro ALT_CI_INTERRUPT_VECTOR defined.
 */

void alt_irq_handler (void) __attribute__ ((section (".exceptions")));
void alt_irq_handler (void)
{
 80000ec:	defff904 	addi	sp,sp,-28
 80000f0:	dfc00615 	stw	ra,24(sp)
 80000f4:	df000515 	stw	fp,20(sp)
 80000f8:	df000504 	addi	fp,sp,20
  
  /*
   * Notify the operating system that we are at interrupt level.
   */ 
  
  ALT_OS_INT_ENTER();
 80000fc:	0001883a 	nop
#ifndef NIOS2_EIC_PRESENT
static ALT_INLINE alt_u32 ALT_ALWAYS_INLINE alt_irq_pending (void)
{
  alt_u32 active;

  NIOS2_READ_IPENDING (active);
 8000100:	0005313a 	rdctl	r2,ipending
 8000104:	e0bffe15 	stw	r2,-8(fp)

  return active;
 8000108:	e0bffe17 	ldw	r2,-8(fp)
   * Consider the case where the high priority interupt is asserted during
   * the interrupt entry sequence for a lower priority interrupt to see why
   * this is the case.
   */

  active = alt_irq_pending ();
 800010c:	e0bffb15 	stw	r2,-20(fp)

  do
  {
    i = 0;
 8000110:	e03ffd15 	stw	zero,-12(fp)
    mask = 1;
 8000114:	00800044 	movi	r2,1
 8000118:	e0bffc15 	stw	r2,-16(fp)
     * called to clear the interrupt condition.
     */

    do
    {
      if (active & mask)
 800011c:	e0fffb17 	ldw	r3,-20(fp)
 8000120:	e0bffc17 	ldw	r2,-16(fp)
 8000124:	1884703a 	and	r2,r3,r2
 8000128:	10001726 	beq	r2,zero,8000188 <alt_irq_handler+0x9c>
      { 
#ifdef ALT_ENHANCED_INTERRUPT_API_PRESENT
        alt_irq[i].handler(alt_irq[i].context); 
 800012c:	00c20074 	movhi	r3,2049
 8000130:	18cd3304 	addi	r3,r3,13516
 8000134:	e0bffd17 	ldw	r2,-12(fp)
 8000138:	100490fa 	slli	r2,r2,3
 800013c:	1885883a 	add	r2,r3,r2
 8000140:	10800017 	ldw	r2,0(r2)
 8000144:	01020074 	movhi	r4,2049
 8000148:	210d3304 	addi	r4,r4,13516
 800014c:	e0fffd17 	ldw	r3,-12(fp)
 8000150:	180690fa 	slli	r3,r3,3
 8000154:	20c7883a 	add	r3,r4,r3
 8000158:	18c00104 	addi	r3,r3,4
 800015c:	18c00017 	ldw	r3,0(r3)
 8000160:	1809883a 	mov	r4,r3
 8000164:	103ee83a 	callr	r2
#else
        alt_irq[i].handler(alt_irq[i].context, i); 
#endif
        break;
 8000168:	0001883a 	nop
#ifndef NIOS2_EIC_PRESENT
static ALT_INLINE alt_u32 ALT_ALWAYS_INLINE alt_irq_pending (void)
{
  alt_u32 active;

  NIOS2_READ_IPENDING (active);
 800016c:	0005313a 	rdctl	r2,ipending
 8000170:	e0bfff15 	stw	r2,-4(fp)

  return active;
 8000174:	e0bfff17 	ldw	r2,-4(fp)
      mask <<= 1;
      i++;

    } while (1);

    active = alt_irq_pending ();
 8000178:	e0bffb15 	stw	r2,-20(fp)
    
  } while (active);
 800017c:	e0bffb17 	ldw	r2,-20(fp)
 8000180:	103fe31e 	bne	r2,zero,8000110 <__alt_data_end+0xfc000110>
 8000184:	00000706 	br	80001a4 <alt_irq_handler+0xb8>
#else
        alt_irq[i].handler(alt_irq[i].context, i); 
#endif
        break;
      }
      mask <<= 1;
 8000188:	e0bffc17 	ldw	r2,-16(fp)
 800018c:	1085883a 	add	r2,r2,r2
 8000190:	e0bffc15 	stw	r2,-16(fp)
      i++;
 8000194:	e0bffd17 	ldw	r2,-12(fp)
 8000198:	10800044 	addi	r2,r2,1
 800019c:	e0bffd15 	stw	r2,-12(fp)

    } while (1);
 80001a0:	003fde06 	br	800011c <__alt_data_end+0xfc00011c>

  /*
   * Notify the operating system that interrupt processing is complete.
   */ 

  ALT_OS_INT_EXIT();
 80001a4:	0001883a 	nop
}
 80001a8:	e037883a 	mov	sp,fp
 80001ac:	dfc00117 	ldw	ra,4(sp)
 80001b0:	df000017 	ldw	fp,0(sp)
 80001b4:	dec00204 	addi	sp,sp,8
 80001b8:	f800283a 	ret

Disassembly of section .text:

080001bc <_start>:

    /*
     * Now that the caches are initialized, set up the stack pointer and global pointer.
     * The values provided by the linker are assumed to be correctly aligned.
     */
    movhi sp, %hi(__alt_stack_pointer)
 80001bc:	06c30034 	movhi	sp,3072
    ori sp, sp, %lo(__alt_stack_pointer)
 80001c0:	dec00014 	ori	sp,sp,0
    movhi gp, %hi(_gp)
 80001c4:	06820074 	movhi	gp,2049
    ori gp, gp, %lo(_gp)
 80001c8:	d6a64614 	ori	gp,gp,39192
 */
#ifndef ALT_SIM_OPTIMIZE
    /* Log that the BSS is about to be cleared. */
    ALT_LOG_PUTS(alt_log_msg_bss)

    movhi r2, %hi(__bss_start)
 80001cc:	00820074 	movhi	r2,2049
    ori r2, r2, %lo(__bss_start)
 80001d0:	108d1c14 	ori	r2,r2,13424

    movhi r3, %hi(__bss_end)
 80001d4:	00c20074 	movhi	r3,2049
    ori r3, r3, %lo(__bss_end)
 80001d8:	18cd7314 	ori	r3,r3,13772

    beq r2, r3, 1f
 80001dc:	10c00326 	beq	r2,r3,80001ec <_start+0x30>

0:
    stw zero, (r2)
 80001e0:	10000015 	stw	zero,0(r2)
    addi r2, r2, 4
 80001e4:	10800104 	addi	r2,r2,4
    bltu r2, r3, 0b
 80001e8:	10fffd36 	bltu	r2,r3,80001e0 <__alt_data_end+0xfc0001e0>
     * section aren't defined until alt_load() has been called).
     */
    mov   et, zero
#endif

    call alt_load
 80001ec:	800d2080 	call	800d208 <alt_load>

    /* Log that alt_main is about to be called. */
    ALT_LOG_PUTS(alt_log_msg_alt_main)

    /* Call the C entry point. It should never return. */
    call alt_main
 80001f0:	800d3b00 	call	800d3b0 <alt_main>

080001f4 <alt_after_alt_main>:

    /* Wait in infinite loop in case alt_main does return. */
alt_after_alt_main:
    br alt_after_alt_main
 80001f4:	003fff06 	br	80001f4 <__alt_data_end+0xfc0001f4>

080001f8 <Init_Touchscreen>:
#define Touchscreen_Baud 	(volatile unsigned char *)	(0x4000234)

char getcharTouchscreen(void);
int putcharTouchscreen(int);

void Init_Touchscreen(void){
 80001f8:	defffd04 	addi	sp,sp,-12
 80001fc:	dfc00215 	stw	ra,8(sp)
 8000200:	df000115 	stw	fp,4(sp)
 8000204:	df000104 	addi	fp,sp,4

	IOWR_8DIRECT(Touchscreen_Baud, 0, 5);
 8000208:	00c00144 	movi	r3,5
 800020c:	00810034 	movhi	r2,1024
 8000210:	10808d04 	addi	r2,r2,564
 8000214:	10c00025 	stbio	r3,0(r2)
	IOWR_8DIRECT(Touchscreen_Control, 0, 149);
 8000218:	00ffe544 	movi	r3,-107
 800021c:	00810034 	movhi	r2,1024
 8000220:	10808c04 	addi	r2,r2,560
 8000224:	10c00025 	stbio	r3,0(r2)

	//IOWR_8DIRECT(Touchscreen_RxData, 0, 0);

	putcharTouchscreen(0x55);
 8000228:	01001544 	movi	r4,85
 800022c:	80004740 	call	8000474 <putcharTouchscreen>
	putcharTouchscreen(0x01);
 8000230:	01000044 	movi	r4,1
 8000234:	80004740 	call	8000474 <putcharTouchscreen>
	putcharTouchscreen(0x12);
 8000238:	01000484 	movi	r4,18
 800023c:	80004740 	call	8000474 <putcharTouchscreen>
	getcharTouchscreen(); //unused -1 value
 8000240:	80004d00 	call	80004d0 <getcharTouchscreen>
	char ch1 = getcharTouchscreen();
 8000244:	80004d00 	call	80004d0 <getcharTouchscreen>
 8000248:	e0bfff05 	stb	r2,-4(fp)
	char ch2 = getcharTouchscreen();
 800024c:	80004d00 	call	80004d0 <getcharTouchscreen>
 8000250:	e0bfff45 	stb	r2,-3(fp)
	char ch3 = getcharTouchscreen();
 8000254:	80004d00 	call	80004d0 <getcharTouchscreen>
 8000258:	e0bfff85 	stb	r2,-2(fp)
	char ch4 = getcharTouchscreen();
 800025c:	80004d00 	call	80004d0 <getcharTouchscreen>
 8000260:	e0bfffc5 	stb	r2,-1(fp)
	printf("Enable Touchscreen Status: %d\n", ch3);
 8000264:	e0bfff87 	ldb	r2,-2(fp)
 8000268:	01020074 	movhi	r4,2049
 800026c:	213eb204 	addi	r4,r4,-1336
 8000270:	100b883a 	mov	r5,r2
 8000274:	80005d40 	call	80005d4 <printf>
}
 8000278:	e037883a 	mov	sp,fp
 800027c:	dfc00117 	ldw	ra,4(sp)
 8000280:	df000017 	ldw	fp,0(sp)
 8000284:	dec00204 	addi	sp,sp,8
 8000288:	f800283a 	ret

0800028c <ScreenTouched>:

int ScreenTouched(void){
 800028c:	defffd04 	addi	sp,sp,-12
 8000290:	dfc00215 	stw	ra,8(sp)
 8000294:	df000115 	stw	fp,4(sp)
 8000298:	df000104 	addi	fp,sp,4
	char c = getcharTouchscreen();
 800029c:	80004d00 	call	80004d0 <getcharTouchscreen>
 80002a0:	e0bfff05 	stb	r2,-4(fp)
	return (c & 0x81) == 0x81;
 80002a4:	e0bfff07 	ldb	r2,-4(fp)
 80002a8:	1080204c 	andi	r2,r2,129
 80002ac:	10802060 	cmpeqi	r2,r2,129
 80002b0:	10803fcc 	andi	r2,r2,255
}
 80002b4:	e037883a 	mov	sp,fp
 80002b8:	dfc00117 	ldw	ra,4(sp)
 80002bc:	df000017 	ldw	fp,0(sp)
 80002c0:	dec00204 	addi	sp,sp,8
 80002c4:	f800283a 	ret

080002c8 <WaitForTouch>:

void WaitForTouch(){
 80002c8:	defffe04 	addi	sp,sp,-8
 80002cc:	dfc00115 	stw	ra,4(sp)
 80002d0:	df000015 	stw	fp,0(sp)
 80002d4:	d839883a 	mov	fp,sp
	while(!ScreenTouched())
 80002d8:	0001883a 	nop
 80002dc:	800028c0 	call	800028c <ScreenTouched>
 80002e0:	103ffe26 	beq	r2,zero,80002dc <__alt_data_end+0xfc0002dc>
		;
}
 80002e4:	e037883a 	mov	sp,fp
 80002e8:	dfc00117 	ldw	ra,4(sp)
 80002ec:	df000017 	ldw	fp,0(sp)
 80002f0:	dec00204 	addi	sp,sp,8
 80002f4:	f800283a 	ret

080002f8 <ScreenReleased>:

int ScreenReleased(void){
 80002f8:	defffd04 	addi	sp,sp,-12
 80002fc:	dfc00215 	stw	ra,8(sp)
 8000300:	df000115 	stw	fp,4(sp)
 8000304:	df000104 	addi	fp,sp,4
	char c = getcharTouchscreen();
 8000308:	80004d00 	call	80004d0 <getcharTouchscreen>
 800030c:	e0bfff05 	stb	r2,-4(fp)
	return (c & 0x81) == 0x80;
 8000310:	e0bfff07 	ldb	r2,-4(fp)
 8000314:	1080204c 	andi	r2,r2,129
 8000318:	10802020 	cmpeqi	r2,r2,128
 800031c:	10803fcc 	andi	r2,r2,255

}
 8000320:	e037883a 	mov	sp,fp
 8000324:	dfc00117 	ldw	ra,4(sp)
 8000328:	df000017 	ldw	fp,0(sp)
 800032c:	dec00204 	addi	sp,sp,8
 8000330:	f800283a 	ret

08000334 <WaitForRelease>:

void WaitForRelease(){
 8000334:	defffe04 	addi	sp,sp,-8
 8000338:	dfc00115 	stw	ra,4(sp)
 800033c:	df000015 	stw	fp,0(sp)
 8000340:	d839883a 	mov	fp,sp
	while(!ScreenReleased())
 8000344:	0001883a 	nop
 8000348:	80002f80 	call	80002f8 <ScreenReleased>
 800034c:	103ffe26 	beq	r2,zero,8000348 <__alt_data_end+0xfc000348>
		;
}
 8000350:	e037883a 	mov	sp,fp
 8000354:	dfc00117 	ldw	ra,4(sp)
 8000358:	df000017 	ldw	fp,0(sp)
 800035c:	dec00204 	addi	sp,sp,8
 8000360:	f800283a 	ret

08000364 <GetPress>:

typedef struct { int x, y; } Point;

Point GetPress(void){
 8000364:	defffb04 	addi	sp,sp,-20
 8000368:	dfc00415 	stw	ra,16(sp)
 800036c:	df000315 	stw	fp,12(sp)
 8000370:	df000304 	addi	fp,sp,12
	Point p1;
	WaitForTouch();
 8000374:	80002c80 	call	80002c8 <WaitForTouch>
	char x1 = getcharTouchscreen();
 8000378:	80004d00 	call	80004d0 <getcharTouchscreen>
 800037c:	e0bffd05 	stb	r2,-12(fp)
	char x2 = getcharTouchscreen();
 8000380:	80004d00 	call	80004d0 <getcharTouchscreen>
 8000384:	e0bffd45 	stb	r2,-11(fp)
	char y1 = getcharTouchscreen();
 8000388:	80004d00 	call	80004d0 <getcharTouchscreen>
 800038c:	e0bffd85 	stb	r2,-10(fp)
	char y2 = getcharTouchscreen();
 8000390:	80004d00 	call	80004d0 <getcharTouchscreen>
 8000394:	e0bffdc5 	stb	r2,-9(fp)
	p1.x = (x2 << 7) + x1;
 8000398:	e0bffd47 	ldb	r2,-11(fp)
 800039c:	100691fa 	slli	r3,r2,7
 80003a0:	e0bffd07 	ldb	r2,-12(fp)
 80003a4:	1885883a 	add	r2,r3,r2
 80003a8:	e0bffe15 	stw	r2,-8(fp)
	p1.y = (y2 << 7) + y1;
 80003ac:	e0bffdc7 	ldb	r2,-9(fp)
 80003b0:	100691fa 	slli	r3,r2,7
 80003b4:	e0bffd87 	ldb	r2,-10(fp)
 80003b8:	1885883a 	add	r2,r3,r2
 80003bc:	e0bfff15 	stw	r2,-4(fp)

	return p1;
 80003c0:	e17ffe17 	ldw	r5,-8(fp)
 80003c4:	e1bfff17 	ldw	r6,-4(fp)
 80003c8:	2807883a 	mov	r3,r5
 80003cc:	3009883a 	mov	r4,r6
}
 80003d0:	1805883a 	mov	r2,r3
 80003d4:	2007883a 	mov	r3,r4
 80003d8:	e037883a 	mov	sp,fp
 80003dc:	dfc00117 	ldw	ra,4(sp)
 80003e0:	df000017 	ldw	fp,0(sp)
 80003e4:	dec00204 	addi	sp,sp,8
 80003e8:	f800283a 	ret

080003ec <GetRelease>:

Point GetRelease(void){
 80003ec:	defffb04 	addi	sp,sp,-20
 80003f0:	dfc00415 	stw	ra,16(sp)
 80003f4:	df000315 	stw	fp,12(sp)
 80003f8:	df000304 	addi	fp,sp,12
	Point p1;
	WaitForRelease();
 80003fc:	80003340 	call	8000334 <WaitForRelease>
	char x1 = getcharTouchscreen();
 8000400:	80004d00 	call	80004d0 <getcharTouchscreen>
 8000404:	e0bffd05 	stb	r2,-12(fp)
	char x2 = getcharTouchscreen();
 8000408:	80004d00 	call	80004d0 <getcharTouchscreen>
 800040c:	e0bffd45 	stb	r2,-11(fp)
	char y1 = getcharTouchscreen();
 8000410:	80004d00 	call	80004d0 <getcharTouchscreen>
 8000414:	e0bffd85 	stb	r2,-10(fp)
	char y2 = getcharTouchscreen();
 8000418:	80004d00 	call	80004d0 <getcharTouchscreen>
 800041c:	e0bffdc5 	stb	r2,-9(fp)
	p1.x = (x2 << 7) + x1;
 8000420:	e0bffd47 	ldb	r2,-11(fp)
 8000424:	100691fa 	slli	r3,r2,7
 8000428:	e0bffd07 	ldb	r2,-12(fp)
 800042c:	1885883a 	add	r2,r3,r2
 8000430:	e0bffe15 	stw	r2,-8(fp)
	p1.y = (y2 << 7) + y1;
 8000434:	e0bffdc7 	ldb	r2,-9(fp)
 8000438:	100691fa 	slli	r3,r2,7
 800043c:	e0bffd87 	ldb	r2,-10(fp)
 8000440:	1885883a 	add	r2,r3,r2
 8000444:	e0bfff15 	stw	r2,-4(fp)

	return p1;
 8000448:	e17ffe17 	ldw	r5,-8(fp)
 800044c:	e1bfff17 	ldw	r6,-4(fp)
 8000450:	2807883a 	mov	r3,r5
 8000454:	3009883a 	mov	r4,r6
}
 8000458:	1805883a 	mov	r2,r3
 800045c:	2007883a 	mov	r3,r4
 8000460:	e037883a 	mov	sp,fp
 8000464:	dfc00117 	ldw	ra,4(sp)
 8000468:	df000017 	ldw	fp,0(sp)
 800046c:	dec00204 	addi	sp,sp,8
 8000470:	f800283a 	ret

08000474 <putcharTouchscreen>:

int putcharTouchscreen(int c){
 8000474:	defffd04 	addi	sp,sp,-12
 8000478:	df000215 	stw	fp,8(sp)
 800047c:	df000204 	addi	fp,sp,8
 8000480:	e13fff15 	stw	r4,-4(fp)
	int status;

	while(1) {
		status = IORD_8DIRECT(Touchscreen_Status, 0);
 8000484:	00810034 	movhi	r2,1024
 8000488:	10808c04 	addi	r2,r2,560
 800048c:	10800023 	ldbuio	r2,0(r2)
 8000490:	10803fcc 	andi	r2,r2,255
 8000494:	e0bffe15 	stw	r2,-8(fp)
		if((status & 2) == 2)
 8000498:	e0bffe17 	ldw	r2,-8(fp)
 800049c:	1080008c 	andi	r2,r2,2
 80004a0:	10000126 	beq	r2,zero,80004a8 <putcharTouchscreen+0x34>
			break;
 80004a4:	00000106 	br	80004ac <putcharTouchscreen+0x38>
	}
 80004a8:	003ff606 	br	8000484 <__alt_data_end+0xfc000484>

	IOWR_8DIRECT(Touchscreen_TxData, 0, c);
 80004ac:	00810034 	movhi	r2,1024
 80004b0:	10808c84 	addi	r2,r2,562
 80004b4:	e0ffff03 	ldbu	r3,-4(fp)
 80004b8:	10c00025 	stbio	r3,0(r2)
	return c;
 80004bc:	e0bfff17 	ldw	r2,-4(fp)
}
 80004c0:	e037883a 	mov	sp,fp
 80004c4:	df000017 	ldw	fp,0(sp)
 80004c8:	dec00104 	addi	sp,sp,4
 80004cc:	f800283a 	ret

080004d0 <getcharTouchscreen>:

char getcharTouchscreen(void){
 80004d0:	defffe04 	addi	sp,sp,-8
 80004d4:	df000115 	stw	fp,4(sp)
 80004d8:	df000104 	addi	fp,sp,4
		int status;

		while(1) {
			status = IORD_8DIRECT(Touchscreen_Status,0);
 80004dc:	00810034 	movhi	r2,1024
 80004e0:	10808c04 	addi	r2,r2,560
 80004e4:	10800023 	ldbuio	r2,0(r2)
 80004e8:	10803fcc 	andi	r2,r2,255
 80004ec:	e0bfff15 	stw	r2,-4(fp)

			if( (status & 1) == 1)
 80004f0:	e0bfff17 	ldw	r2,-4(fp)
 80004f4:	1080004c 	andi	r2,r2,1
 80004f8:	10000126 	beq	r2,zero,8000500 <getcharTouchscreen+0x30>
				break;
 80004fc:	00000106 	br	8000504 <getcharTouchscreen+0x34>
		}
 8000500:	003ff606 	br	80004dc <__alt_data_end+0xfc0004dc>

		return (char) IORD_8DIRECT(Touchscreen_RxData,0);
 8000504:	00810034 	movhi	r2,1024
 8000508:	10808c84 	addi	r2,r2,562
 800050c:	10800023 	ldbuio	r2,0(r2)
 8000510:	10803fcc 	andi	r2,r2,255
}
 8000514:	e037883a 	mov	sp,fp
 8000518:	df000017 	ldw	fp,0(sp)
 800051c:	dec00104 	addi	sp,sp,4
 8000520:	f800283a 	ret

08000524 <main>:
typedef struct { int x, y; } Point;

Point GetPress(void);
Point GetRelease(void);
int main()
{
 8000524:	defffa04 	addi	sp,sp,-24
 8000528:	dfc00515 	stw	ra,20(sp)
 800052c:	df000415 	stw	fp,16(sp)
 8000530:	df000404 	addi	fp,sp,16
  printf("Hello from Nios II!\n");
 8000534:	01020074 	movhi	r4,2049
 8000538:	213eba04 	addi	r4,r4,-1304
 800053c:	80006c80 	call	80006c8 <puts>
  Init_Touchscreen();
 8000540:	80001f80 	call	80001f8 <Init_Touchscreen>
  Point p1, p2;
  while(1){
	  p1 = GetPress();
 8000544:	80003640 	call	8000364 <GetPress>
 8000548:	1009883a 	mov	r4,r2
 800054c:	180b883a 	mov	r5,r3
 8000550:	e13ffc15 	stw	r4,-16(fp)
 8000554:	e17ffd15 	stw	r5,-12(fp)
	  printf("Press x: %d y: %d\n", p1.x, p1.y);
 8000558:	e0fffc17 	ldw	r3,-16(fp)
 800055c:	e0bffd17 	ldw	r2,-12(fp)
 8000560:	01020074 	movhi	r4,2049
 8000564:	213ebf04 	addi	r4,r4,-1284
 8000568:	180b883a 	mov	r5,r3
 800056c:	100d883a 	mov	r6,r2
 8000570:	80005d40 	call	80005d4 <printf>

	  p2 = GetRelease();
 8000574:	80003ec0 	call	80003ec <GetRelease>
 8000578:	1009883a 	mov	r4,r2
 800057c:	180b883a 	mov	r5,r3
 8000580:	e13ffe15 	stw	r4,-8(fp)
 8000584:	e17fff15 	stw	r5,-4(fp)
	  printf("Release x: %d y: %d\n\n", p2.x, p2.y);
 8000588:	e0fffe17 	ldw	r3,-8(fp)
 800058c:	e0bfff17 	ldw	r2,-4(fp)
 8000590:	01020074 	movhi	r4,2049
 8000594:	213ec404 	addi	r4,r4,-1264
 8000598:	180b883a 	mov	r5,r3
 800059c:	100d883a 	mov	r6,r2
 80005a0:	80005d40 	call	80005d4 <printf>
  }
 80005a4:	003fe706 	br	8000544 <__alt_data_end+0xfc000544>

080005a8 <_printf_r>:
 80005a8:	defffd04 	addi	sp,sp,-12
 80005ac:	dfc00015 	stw	ra,0(sp)
 80005b0:	d9800115 	stw	r6,4(sp)
 80005b4:	d9c00215 	stw	r7,8(sp)
 80005b8:	280d883a 	mov	r6,r5
 80005bc:	21400217 	ldw	r5,8(r4)
 80005c0:	d9c00104 	addi	r7,sp,4
 80005c4:	80007680 	call	8000768 <___vfprintf_internal_r>
 80005c8:	dfc00017 	ldw	ra,0(sp)
 80005cc:	dec00304 	addi	sp,sp,12
 80005d0:	f800283a 	ret

080005d4 <printf>:
 80005d4:	defffc04 	addi	sp,sp,-16
 80005d8:	dfc00015 	stw	ra,0(sp)
 80005dc:	d9400115 	stw	r5,4(sp)
 80005e0:	d9800215 	stw	r6,8(sp)
 80005e4:	d9c00315 	stw	r7,12(sp)
 80005e8:	00820074 	movhi	r2,2049
 80005ec:	10864704 	addi	r2,r2,6428
 80005f0:	10800017 	ldw	r2,0(r2)
 80005f4:	200b883a 	mov	r5,r4
 80005f8:	d9800104 	addi	r6,sp,4
 80005fc:	11000217 	ldw	r4,8(r2)
 8000600:	80028bc0 	call	80028bc <__vfprintf_internal>
 8000604:	dfc00017 	ldw	ra,0(sp)
 8000608:	dec00404 	addi	sp,sp,16
 800060c:	f800283a 	ret

08000610 <_puts_r>:
 8000610:	defff604 	addi	sp,sp,-40
 8000614:	dc400815 	stw	r17,32(sp)
 8000618:	2023883a 	mov	r17,r4
 800061c:	2809883a 	mov	r4,r5
 8000620:	dc000715 	stw	r16,28(sp)
 8000624:	dfc00915 	stw	ra,36(sp)
 8000628:	2821883a 	mov	r16,r5
 800062c:	80006dc0 	call	80006dc <strlen>
 8000630:	00c20074 	movhi	r3,2049
 8000634:	18c64704 	addi	r3,r3,6428
 8000638:	18c00017 	ldw	r3,0(r3)
 800063c:	11000044 	addi	r4,r2,1
 8000640:	d8800115 	stw	r2,4(sp)
 8000644:	18c00217 	ldw	r3,8(r3)
 8000648:	00820074 	movhi	r2,2049
 800064c:	10beca04 	addi	r2,r2,-1240
 8000650:	d8800215 	stw	r2,8(sp)
 8000654:	1940030b 	ldhu	r5,12(r3)
 8000658:	00800044 	movi	r2,1
 800065c:	d8800315 	stw	r2,12(sp)
 8000660:	00800084 	movi	r2,2
 8000664:	d8800515 	stw	r2,20(sp)
 8000668:	dc000015 	stw	r16,0(sp)
 800066c:	d9000615 	stw	r4,24(sp)
 8000670:	dec00415 	stw	sp,16(sp)
 8000674:	2888000c 	andi	r2,r5,8192
 8000678:	1000061e 	bne	r2,zero,8000694 <_puts_r+0x84>
 800067c:	19001917 	ldw	r4,100(r3)
 8000680:	00b7ffc4 	movi	r2,-8193
 8000684:	29480014 	ori	r5,r5,8192
 8000688:	2084703a 	and	r2,r4,r2
 800068c:	1940030d 	sth	r5,12(r3)
 8000690:	18801915 	stw	r2,100(r3)
 8000694:	89400217 	ldw	r5,8(r17)
 8000698:	8809883a 	mov	r4,r17
 800069c:	d9800404 	addi	r6,sp,16
 80006a0:	8004ca00 	call	8004ca0 <__sfvwrite_r>
 80006a4:	1000061e 	bne	r2,zero,80006c0 <_puts_r+0xb0>
 80006a8:	00800284 	movi	r2,10
 80006ac:	dfc00917 	ldw	ra,36(sp)
 80006b0:	dc400817 	ldw	r17,32(sp)
 80006b4:	dc000717 	ldw	r16,28(sp)
 80006b8:	dec00a04 	addi	sp,sp,40
 80006bc:	f800283a 	ret
 80006c0:	00bfffc4 	movi	r2,-1
 80006c4:	003ff906 	br	80006ac <__alt_data_end+0xfc0006ac>

080006c8 <puts>:
 80006c8:	00820074 	movhi	r2,2049
 80006cc:	10864704 	addi	r2,r2,6428
 80006d0:	200b883a 	mov	r5,r4
 80006d4:	11000017 	ldw	r4,0(r2)
 80006d8:	80006101 	jmpi	8000610 <_puts_r>

080006dc <strlen>:
 80006dc:	208000cc 	andi	r2,r4,3
 80006e0:	10001d26 	beq	r2,zero,8000758 <strlen+0x7c>
 80006e4:	20800007 	ldb	r2,0(r4)
 80006e8:	10001d26 	beq	r2,zero,8000760 <strlen+0x84>
 80006ec:	2005883a 	mov	r2,r4
 80006f0:	00000206 	br	80006fc <strlen+0x20>
 80006f4:	10c00007 	ldb	r3,0(r2)
 80006f8:	18001526 	beq	r3,zero,8000750 <strlen+0x74>
 80006fc:	10800044 	addi	r2,r2,1
 8000700:	10c000cc 	andi	r3,r2,3
 8000704:	183ffb1e 	bne	r3,zero,80006f4 <__alt_data_end+0xfc0006f4>
 8000708:	10c00017 	ldw	r3,0(r2)
 800070c:	01ffbff4 	movhi	r7,65279
 8000710:	39ffbfc4 	addi	r7,r7,-257
 8000714:	01a02074 	movhi	r6,32897
 8000718:	31a02004 	addi	r6,r6,-32640
 800071c:	00000206 	br	8000728 <strlen+0x4c>
 8000720:	10800104 	addi	r2,r2,4
 8000724:	10c00017 	ldw	r3,0(r2)
 8000728:	19cb883a 	add	r5,r3,r7
 800072c:	00c6303a 	nor	r3,zero,r3
 8000730:	28c6703a 	and	r3,r5,r3
 8000734:	1986703a 	and	r3,r3,r6
 8000738:	183ff926 	beq	r3,zero,8000720 <__alt_data_end+0xfc000720>
 800073c:	10c00007 	ldb	r3,0(r2)
 8000740:	18000326 	beq	r3,zero,8000750 <strlen+0x74>
 8000744:	10800044 	addi	r2,r2,1
 8000748:	10c00007 	ldb	r3,0(r2)
 800074c:	183ffd1e 	bne	r3,zero,8000744 <__alt_data_end+0xfc000744>
 8000750:	1105c83a 	sub	r2,r2,r4
 8000754:	f800283a 	ret
 8000758:	2005883a 	mov	r2,r4
 800075c:	003fea06 	br	8000708 <__alt_data_end+0xfc000708>
 8000760:	0005883a 	mov	r2,zero
 8000764:	f800283a 	ret

08000768 <___vfprintf_internal_r>:
 8000768:	defeb604 	addi	sp,sp,-1320
 800076c:	dfc14915 	stw	ra,1316(sp)
 8000770:	dcc14315 	stw	r19,1292(sp)
 8000774:	dc414115 	stw	r17,1284(sp)
 8000778:	d9012c15 	stw	r4,1200(sp)
 800077c:	2827883a 	mov	r19,r5
 8000780:	3023883a 	mov	r17,r6
 8000784:	d9c12f15 	stw	r7,1212(sp)
 8000788:	df014815 	stw	fp,1312(sp)
 800078c:	ddc14715 	stw	r23,1308(sp)
 8000790:	dd814615 	stw	r22,1304(sp)
 8000794:	dd414515 	stw	r21,1300(sp)
 8000798:	dd014415 	stw	r20,1296(sp)
 800079c:	dc814215 	stw	r18,1288(sp)
 80007a0:	dc014015 	stw	r16,1280(sp)
 80007a4:	800534c0 	call	800534c <_localeconv_r>
 80007a8:	10800017 	ldw	r2,0(r2)
 80007ac:	1009883a 	mov	r4,r2
 80007b0:	d8813415 	stw	r2,1232(sp)
 80007b4:	80006dc0 	call	80006dc <strlen>
 80007b8:	d8813815 	stw	r2,1248(sp)
 80007bc:	d8812c17 	ldw	r2,1200(sp)
 80007c0:	10000226 	beq	r2,zero,80007cc <___vfprintf_internal_r+0x64>
 80007c4:	10800e17 	ldw	r2,56(r2)
 80007c8:	10010826 	beq	r2,zero,8000bec <___vfprintf_internal_r+0x484>
 80007cc:	9880030b 	ldhu	r2,12(r19)
 80007d0:	1108000c 	andi	r4,r2,8192
 80007d4:	1007883a 	mov	r3,r2
 80007d8:	2000071e 	bne	r4,zero,80007f8 <___vfprintf_internal_r+0x90>
 80007dc:	99001917 	ldw	r4,100(r19)
 80007e0:	10c80014 	ori	r3,r2,8192
 80007e4:	00b7ffc4 	movi	r2,-8193
 80007e8:	2088703a 	and	r4,r4,r2
 80007ec:	98c0030d 	sth	r3,12(r19)
 80007f0:	1805883a 	mov	r2,r3
 80007f4:	99001915 	stw	r4,100(r19)
 80007f8:	1900020c 	andi	r4,r3,8
 80007fc:	2000ab26 	beq	r4,zero,8000aac <___vfprintf_internal_r+0x344>
 8000800:	99000417 	ldw	r4,16(r19)
 8000804:	2000a926 	beq	r4,zero,8000aac <___vfprintf_internal_r+0x344>
 8000808:	18c0068c 	andi	r3,r3,26
 800080c:	01000284 	movi	r4,10
 8000810:	1900af26 	beq	r3,r4,8000ad0 <___vfprintf_internal_r+0x368>
 8000814:	d9010dc4 	addi	r4,sp,1079
 8000818:	d9410e04 	addi	r5,sp,1080
 800081c:	d8800404 	addi	r2,sp,16
 8000820:	2907c83a 	sub	r3,r5,r4
 8000824:	d9012815 	stw	r4,1184(sp)
 8000828:	d9412915 	stw	r5,1188(sp)
 800082c:	d8811e15 	stw	r2,1144(sp)
 8000830:	d8012015 	stw	zero,1152(sp)
 8000834:	d8011f15 	stw	zero,1148(sp)
 8000838:	d8013515 	stw	zero,1236(sp)
 800083c:	d8013715 	stw	zero,1244(sp)
 8000840:	d8013915 	stw	zero,1252(sp)
 8000844:	d8013b15 	stw	zero,1260(sp)
 8000848:	d8013a15 	stw	zero,1256(sp)
 800084c:	d8013115 	stw	zero,1220(sp)
 8000850:	1011883a 	mov	r8,r2
 8000854:	05c20074 	movhi	r23,2049
 8000858:	bdfedb84 	addi	r23,r23,-1170
 800085c:	d8c13d15 	stw	r3,1268(sp)
 8000860:	88800007 	ldb	r2,0(r17)
 8000864:	10021126 	beq	r2,zero,80010ac <___vfprintf_internal_r+0x944>
 8000868:	00c00944 	movi	r3,37
 800086c:	8821883a 	mov	r16,r17
 8000870:	10c0021e 	bne	r2,r3,800087c <___vfprintf_internal_r+0x114>
 8000874:	00001406 	br	80008c8 <___vfprintf_internal_r+0x160>
 8000878:	10c00326 	beq	r2,r3,8000888 <___vfprintf_internal_r+0x120>
 800087c:	84000044 	addi	r16,r16,1
 8000880:	80800007 	ldb	r2,0(r16)
 8000884:	103ffc1e 	bne	r2,zero,8000878 <__alt_data_end+0xfc000878>
 8000888:	8465c83a 	sub	r18,r16,r17
 800088c:	90000e26 	beq	r18,zero,80008c8 <___vfprintf_internal_r+0x160>
 8000890:	d8c12017 	ldw	r3,1152(sp)
 8000894:	d8811f17 	ldw	r2,1148(sp)
 8000898:	44400015 	stw	r17,0(r8)
 800089c:	1c87883a 	add	r3,r3,r18
 80008a0:	10800044 	addi	r2,r2,1
 80008a4:	d8c12015 	stw	r3,1152(sp)
 80008a8:	44800115 	stw	r18,4(r8)
 80008ac:	d8811f15 	stw	r2,1148(sp)
 80008b0:	00c001c4 	movi	r3,7
 80008b4:	1880bb16 	blt	r3,r2,8000ba4 <___vfprintf_internal_r+0x43c>
 80008b8:	42000204 	addi	r8,r8,8
 80008bc:	d9013117 	ldw	r4,1220(sp)
 80008c0:	2489883a 	add	r4,r4,r18
 80008c4:	d9013115 	stw	r4,1220(sp)
 80008c8:	80800007 	ldb	r2,0(r16)
 80008cc:	1000bc26 	beq	r2,zero,8000bc0 <___vfprintf_internal_r+0x458>
 80008d0:	053fffc4 	movi	r20,-1
 80008d4:	84400044 	addi	r17,r16,1
 80008d8:	84800047 	ldb	r18,1(r16)
 80008dc:	d8012785 	stb	zero,1182(sp)
 80008e0:	002d883a 	mov	r22,zero
 80008e4:	d8013015 	stw	zero,1216(sp)
 80008e8:	d8012a15 	stw	zero,1192(sp)
 80008ec:	04001604 	movi	r16,88
 80008f0:	05400244 	movi	r21,9
 80008f4:	4039883a 	mov	fp,r8
 80008f8:	a007883a 	mov	r3,r20
 80008fc:	8c400044 	addi	r17,r17,1
 8000900:	90bff804 	addi	r2,r18,-32
 8000904:	80832036 	bltu	r16,r2,8001588 <___vfprintf_internal_r+0xe20>
 8000908:	1085883a 	add	r2,r2,r2
 800090c:	1085883a 	add	r2,r2,r2
 8000910:	01420034 	movhi	r5,2048
 8000914:	29424904 	addi	r5,r5,2340
 8000918:	1145883a 	add	r2,r2,r5
 800091c:	10800017 	ldw	r2,0(r2)
 8000920:	1000683a 	jmp	r2
 8000924:	08001328 	cmpgeui	zero,at,76
 8000928:	08001588 	cmpgei	zero,at,86
 800092c:	08001588 	cmpgei	zero,at,86
 8000930:	08001344 	addi	zero,at,77
 8000934:	08001588 	cmpgei	zero,at,86
 8000938:	08001588 	cmpgei	zero,at,86
 800093c:	08001588 	cmpgei	zero,at,86
 8000940:	08001588 	cmpgei	zero,at,86
 8000944:	08001588 	cmpgei	zero,at,86
 8000948:	08001588 	cmpgei	zero,at,86
 800094c:	08001358 	cmpnei	zero,at,77
 8000950:	08000bf8 	rdprs	zero,at,47
 8000954:	08001588 	cmpgei	zero,at,86
 8000958:	08000a98 	cmpnei	zero,at,42
 800095c:	08000c04 	addi	zero,at,48
 8000960:	08001588 	cmpgei	zero,at,86
 8000964:	08000c54 	ori	zero,at,49
 8000968:	08001164 	muli	zero,at,69
 800096c:	08001164 	muli	zero,at,69
 8000970:	08001164 	muli	zero,at,69
 8000974:	08001164 	muli	zero,at,69
 8000978:	08001164 	muli	zero,at,69
 800097c:	08001164 	muli	zero,at,69
 8000980:	08001164 	muli	zero,at,69
 8000984:	08001164 	muli	zero,at,69
 8000988:	08001164 	muli	zero,at,69
 800098c:	08001588 	cmpgei	zero,at,86
 8000990:	08001588 	cmpgei	zero,at,86
 8000994:	08001588 	cmpgei	zero,at,86
 8000998:	08001588 	cmpgei	zero,at,86
 800099c:	08001588 	cmpgei	zero,at,86
 80009a0:	08001588 	cmpgei	zero,at,86
 80009a4:	08001588 	cmpgei	zero,at,86
 80009a8:	08001588 	cmpgei	zero,at,86
 80009ac:	08001588 	cmpgei	zero,at,86
 80009b0:	08001588 	cmpgei	zero,at,86
 80009b4:	08000c68 	cmpgeui	zero,at,49
 80009b8:	080010b4 	orhi	zero,at,66
 80009bc:	08001588 	cmpgei	zero,at,86
 80009c0:	080010b4 	orhi	zero,at,66
 80009c4:	08001588 	cmpgei	zero,at,86
 80009c8:	08001588 	cmpgei	zero,at,86
 80009cc:	08001588 	cmpgei	zero,at,86
 80009d0:	08001588 	cmpgei	zero,at,86
 80009d4:	080011ac 	andhi	zero,at,70
 80009d8:	08001588 	cmpgei	zero,at,86
 80009dc:	08001588 	cmpgei	zero,at,86
 80009e0:	080011c0 	call	80011c <__reset-0x77ffee4>
 80009e4:	08001588 	cmpgei	zero,at,86
 80009e8:	08001588 	cmpgei	zero,at,86
 80009ec:	08001588 	cmpgei	zero,at,86
 80009f0:	08001588 	cmpgei	zero,at,86
 80009f4:	08001588 	cmpgei	zero,at,86
 80009f8:	08001208 	cmpgei	zero,at,72
 80009fc:	08001588 	cmpgei	zero,at,86
 8000a00:	08001588 	cmpgei	zero,at,86
 8000a04:	0800137c 	xorhi	zero,at,77
 8000a08:	08001588 	cmpgei	zero,at,86
 8000a0c:	08001588 	cmpgei	zero,at,86
 8000a10:	08001588 	cmpgei	zero,at,86
 8000a14:	08001588 	cmpgei	zero,at,86
 8000a18:	08001588 	cmpgei	zero,at,86
 8000a1c:	08001588 	cmpgei	zero,at,86
 8000a20:	08001588 	cmpgei	zero,at,86
 8000a24:	08001588 	cmpgei	zero,at,86
 8000a28:	08001588 	cmpgei	zero,at,86
 8000a2c:	08001588 	cmpgei	zero,at,86
 8000a30:	08001280 	call	800128 <__reset-0x77ffed8>
 8000a34:	080013f8 	rdprs	zero,at,79
 8000a38:	080010b4 	orhi	zero,at,66
 8000a3c:	080010b4 	orhi	zero,at,66
 8000a40:	080010b4 	orhi	zero,at,66
 8000a44:	080013c4 	addi	zero,at,79
 8000a48:	080013f8 	rdprs	zero,at,79
 8000a4c:	08001588 	cmpgei	zero,at,86
 8000a50:	08001588 	cmpgei	zero,at,86
 8000a54:	080013d8 	cmpnei	zero,at,79
 8000a58:	08001588 	cmpgei	zero,at,86
 8000a5c:	08001248 	cmpgei	zero,at,73
 8000a60:	08001508 	cmpgei	zero,at,84
 8000a64:	080014b4 	orhi	zero,at,82
 8000a68:	08001438 	rdprs	zero,at,80
 8000a6c:	08001588 	cmpgei	zero,at,86
 8000a70:	0800144c 	andi	zero,at,81
 8000a74:	08001588 	cmpgei	zero,at,86
 8000a78:	08001548 	cmpgei	zero,at,85
 8000a7c:	08001588 	cmpgei	zero,at,86
 8000a80:	08001588 	cmpgei	zero,at,86
 8000a84:	080012c0 	call	80012c <__reset-0x77ffed4>
 8000a88:	d9413017 	ldw	r5,1216(sp)
 8000a8c:	d8812f15 	stw	r2,1212(sp)
 8000a90:	014bc83a 	sub	r5,zero,r5
 8000a94:	d9413015 	stw	r5,1216(sp)
 8000a98:	d8812a17 	ldw	r2,1192(sp)
 8000a9c:	10800114 	ori	r2,r2,4
 8000aa0:	d8812a15 	stw	r2,1192(sp)
 8000aa4:	8c800007 	ldb	r18,0(r17)
 8000aa8:	003f9406 	br	80008fc <__alt_data_end+0xfc0008fc>
 8000aac:	d9012c17 	ldw	r4,1200(sp)
 8000ab0:	980b883a 	mov	r5,r19
 8000ab4:	80028e00 	call	80028e0 <__swsetup_r>
 8000ab8:	10002d1e 	bne	r2,zero,8000b70 <___vfprintf_internal_r+0x408>
 8000abc:	9880030b 	ldhu	r2,12(r19)
 8000ac0:	01000284 	movi	r4,10
 8000ac4:	1007883a 	mov	r3,r2
 8000ac8:	18c0068c 	andi	r3,r3,26
 8000acc:	193f511e 	bne	r3,r4,8000814 <__alt_data_end+0xfc000814>
 8000ad0:	98c0038b 	ldhu	r3,14(r19)
 8000ad4:	193fffcc 	andi	r4,r3,65535
 8000ad8:	2120001c 	xori	r4,r4,32768
 8000adc:	21200004 	addi	r4,r4,-32768
 8000ae0:	203f4c16 	blt	r4,zero,8000814 <__alt_data_end+0xfc000814>
 8000ae4:	9ac01917 	ldw	r11,100(r19)
 8000ae8:	9a800717 	ldw	r10,28(r19)
 8000aec:	9a400917 	ldw	r9,36(r19)
 8000af0:	d9012c17 	ldw	r4,1200(sp)
 8000af4:	d9c12f17 	ldw	r7,1212(sp)
 8000af8:	02010004 	movi	r8,1024
 8000afc:	10bfff4c 	andi	r2,r2,65533
 8000b00:	d8c1078d 	sth	r3,1054(sp)
 8000b04:	d9410404 	addi	r5,sp,1040
 8000b08:	d8c00404 	addi	r3,sp,16
 8000b0c:	880d883a 	mov	r6,r17
 8000b10:	d881070d 	sth	r2,1052(sp)
 8000b14:	dac11d15 	stw	r11,1140(sp)
 8000b18:	da810b15 	stw	r10,1068(sp)
 8000b1c:	da410d15 	stw	r9,1076(sp)
 8000b20:	d8c10415 	stw	r3,1040(sp)
 8000b24:	d8c10815 	stw	r3,1056(sp)
 8000b28:	da010615 	stw	r8,1048(sp)
 8000b2c:	da010915 	stw	r8,1060(sp)
 8000b30:	d8010a15 	stw	zero,1064(sp)
 8000b34:	80007680 	call	8000768 <___vfprintf_internal_r>
 8000b38:	1021883a 	mov	r16,r2
 8000b3c:	10000416 	blt	r2,zero,8000b50 <___vfprintf_internal_r+0x3e8>
 8000b40:	d9012c17 	ldw	r4,1200(sp)
 8000b44:	d9410404 	addi	r5,sp,1040
 8000b48:	800427c0 	call	800427c <_fflush_r>
 8000b4c:	10072a1e 	bne	r2,zero,80027f8 <___vfprintf_internal_r+0x2090>
 8000b50:	d881070b 	ldhu	r2,1052(sp)
 8000b54:	1080100c 	andi	r2,r2,64
 8000b58:	10000326 	beq	r2,zero,8000b68 <___vfprintf_internal_r+0x400>
 8000b5c:	9880030b 	ldhu	r2,12(r19)
 8000b60:	10801014 	ori	r2,r2,64
 8000b64:	9880030d 	sth	r2,12(r19)
 8000b68:	8005883a 	mov	r2,r16
 8000b6c:	00000106 	br	8000b74 <___vfprintf_internal_r+0x40c>
 8000b70:	00bfffc4 	movi	r2,-1
 8000b74:	dfc14917 	ldw	ra,1316(sp)
 8000b78:	df014817 	ldw	fp,1312(sp)
 8000b7c:	ddc14717 	ldw	r23,1308(sp)
 8000b80:	dd814617 	ldw	r22,1304(sp)
 8000b84:	dd414517 	ldw	r21,1300(sp)
 8000b88:	dd014417 	ldw	r20,1296(sp)
 8000b8c:	dcc14317 	ldw	r19,1292(sp)
 8000b90:	dc814217 	ldw	r18,1288(sp)
 8000b94:	dc414117 	ldw	r17,1284(sp)
 8000b98:	dc014017 	ldw	r16,1280(sp)
 8000b9c:	dec14a04 	addi	sp,sp,1320
 8000ba0:	f800283a 	ret
 8000ba4:	d9012c17 	ldw	r4,1200(sp)
 8000ba8:	980b883a 	mov	r5,r19
 8000bac:	d9811e04 	addi	r6,sp,1144
 8000bb0:	8007a700 	call	8007a70 <__sprint_r>
 8000bb4:	1000081e 	bne	r2,zero,8000bd8 <___vfprintf_internal_r+0x470>
 8000bb8:	da000404 	addi	r8,sp,16
 8000bbc:	003f3f06 	br	80008bc <__alt_data_end+0xfc0008bc>
 8000bc0:	d8812017 	ldw	r2,1152(sp)
 8000bc4:	10000426 	beq	r2,zero,8000bd8 <___vfprintf_internal_r+0x470>
 8000bc8:	d9012c17 	ldw	r4,1200(sp)
 8000bcc:	980b883a 	mov	r5,r19
 8000bd0:	d9811e04 	addi	r6,sp,1144
 8000bd4:	8007a700 	call	8007a70 <__sprint_r>
 8000bd8:	9880030b 	ldhu	r2,12(r19)
 8000bdc:	1080100c 	andi	r2,r2,64
 8000be0:	103fe31e 	bne	r2,zero,8000b70 <__alt_data_end+0xfc000b70>
 8000be4:	d8813117 	ldw	r2,1220(sp)
 8000be8:	003fe206 	br	8000b74 <__alt_data_end+0xfc000b74>
 8000bec:	d9012c17 	ldw	r4,1200(sp)
 8000bf0:	800459c0 	call	800459c <__sinit>
 8000bf4:	003ef506 	br	80007cc <__alt_data_end+0xfc0007cc>
 8000bf8:	05800ac4 	movi	r22,43
 8000bfc:	8c800007 	ldb	r18,0(r17)
 8000c00:	003f3e06 	br	80008fc <__alt_data_end+0xfc0008fc>
 8000c04:	8c800007 	ldb	r18,0(r17)
 8000c08:	00c00a84 	movi	r3,42
 8000c0c:	88800044 	addi	r2,r17,1
 8000c10:	90c6fb26 	beq	r18,r3,8002800 <___vfprintf_internal_r+0x2098>
 8000c14:	953ff404 	addi	r20,r18,-48
 8000c18:	1023883a 	mov	r17,r2
 8000c1c:	0007883a 	mov	r3,zero
 8000c20:	ad3f3736 	bltu	r21,r20,8000900 <__alt_data_end+0xfc000900>
 8000c24:	0009883a 	mov	r4,zero
 8000c28:	01400284 	movi	r5,10
 8000c2c:	800a6b00 	call	800a6b0 <__mulsi3>
 8000c30:	8c800007 	ldb	r18,0(r17)
 8000c34:	a089883a 	add	r4,r20,r2
 8000c38:	8c400044 	addi	r17,r17,1
 8000c3c:	953ff404 	addi	r20,r18,-48
 8000c40:	ad3ff92e 	bgeu	r21,r20,8000c28 <__alt_data_end+0xfc000c28>
 8000c44:	2007883a 	mov	r3,r4
 8000c48:	203f2d0e 	bge	r4,zero,8000900 <__alt_data_end+0xfc000900>
 8000c4c:	00ffffc4 	movi	r3,-1
 8000c50:	003f2b06 	br	8000900 <__alt_data_end+0xfc000900>
 8000c54:	d9412a17 	ldw	r5,1192(sp)
 8000c58:	29402014 	ori	r5,r5,128
 8000c5c:	d9412a15 	stw	r5,1192(sp)
 8000c60:	8c800007 	ldb	r18,0(r17)
 8000c64:	003f2506 	br	80008fc <__alt_data_end+0xfc0008fc>
 8000c68:	d9412a17 	ldw	r5,1192(sp)
 8000c6c:	1829883a 	mov	r20,r3
 8000c70:	dd812785 	stb	r22,1182(sp)
 8000c74:	29400414 	ori	r5,r5,16
 8000c78:	d9412a15 	stw	r5,1192(sp)
 8000c7c:	d8c12a17 	ldw	r3,1192(sp)
 8000c80:	e011883a 	mov	r8,fp
 8000c84:	1880080c 	andi	r2,r3,32
 8000c88:	1001e126 	beq	r2,zero,8001410 <___vfprintf_internal_r+0xca8>
 8000c8c:	d9012f17 	ldw	r4,1212(sp)
 8000c90:	20800117 	ldw	r2,4(r4)
 8000c94:	25400017 	ldw	r21,0(r4)
 8000c98:	21000204 	addi	r4,r4,8
 8000c9c:	d9012f15 	stw	r4,1212(sp)
 8000ca0:	102d883a 	mov	r22,r2
 8000ca4:	10046916 	blt	r2,zero,8001e4c <___vfprintf_internal_r+0x16e4>
 8000ca8:	df012783 	ldbu	fp,1182(sp)
 8000cac:	00c00044 	movi	r3,1
 8000cb0:	ad84b03a 	or	r2,r21,r22
 8000cb4:	a0000416 	blt	r20,zero,8000cc8 <___vfprintf_internal_r+0x560>
 8000cb8:	d9412a17 	ldw	r5,1192(sp)
 8000cbc:	013fdfc4 	movi	r4,-129
 8000cc0:	290a703a 	and	r5,r5,r4
 8000cc4:	d9412a15 	stw	r5,1192(sp)
 8000cc8:	1002491e 	bne	r2,zero,80015f0 <___vfprintf_internal_r+0xe88>
 8000ccc:	a002481e 	bne	r20,zero,80015f0 <___vfprintf_internal_r+0xe88>
 8000cd0:	18c03fcc 	andi	r3,r3,255
 8000cd4:	1803871e 	bne	r3,zero,8001af4 <___vfprintf_internal_r+0x138c>
 8000cd8:	d9012a17 	ldw	r4,1192(sp)
 8000cdc:	2080004c 	andi	r2,r4,1
 8000ce0:	10038426 	beq	r2,zero,8001af4 <___vfprintf_internal_r+0x138c>
 8000ce4:	d9413d17 	ldw	r5,1268(sp)
 8000ce8:	00800c04 	movi	r2,48
 8000cec:	d8810dc5 	stb	r2,1079(sp)
 8000cf0:	d9412e15 	stw	r5,1208(sp)
 8000cf4:	dc010dc4 	addi	r16,sp,1079
 8000cf8:	d8812e17 	ldw	r2,1208(sp)
 8000cfc:	1500010e 	bge	r2,r20,8000d04 <___vfprintf_internal_r+0x59c>
 8000d00:	a005883a 	mov	r2,r20
 8000d04:	d8812b15 	stw	r2,1196(sp)
 8000d08:	d8013315 	stw	zero,1228(sp)
 8000d0c:	e0803fcc 	andi	r2,fp,255
 8000d10:	1080201c 	xori	r2,r2,128
 8000d14:	10bfe004 	addi	r2,r2,-128
 8000d18:	10000326 	beq	r2,zero,8000d28 <___vfprintf_internal_r+0x5c0>
 8000d1c:	d8c12b17 	ldw	r3,1196(sp)
 8000d20:	18c00044 	addi	r3,r3,1
 8000d24:	d8c12b15 	stw	r3,1196(sp)
 8000d28:	d8c12a17 	ldw	r3,1192(sp)
 8000d2c:	18c0008c 	andi	r3,r3,2
 8000d30:	d8c12d15 	stw	r3,1204(sp)
 8000d34:	18000326 	beq	r3,zero,8000d44 <___vfprintf_internal_r+0x5dc>
 8000d38:	d8c12b17 	ldw	r3,1196(sp)
 8000d3c:	18c00084 	addi	r3,r3,2
 8000d40:	d8c12b15 	stw	r3,1196(sp)
 8000d44:	d8c12a17 	ldw	r3,1192(sp)
 8000d48:	18c0210c 	andi	r3,r3,132
 8000d4c:	d8c13215 	stw	r3,1224(sp)
 8000d50:	1802151e 	bne	r3,zero,80015a8 <___vfprintf_internal_r+0xe40>
 8000d54:	d9013017 	ldw	r4,1216(sp)
 8000d58:	d8c12b17 	ldw	r3,1196(sp)
 8000d5c:	20f9c83a 	sub	fp,r4,r3
 8000d60:	0702110e 	bge	zero,fp,80015a8 <___vfprintf_internal_r+0xe40>
 8000d64:	02400404 	movi	r9,16
 8000d68:	d8c12017 	ldw	r3,1152(sp)
 8000d6c:	d8811f17 	ldw	r2,1148(sp)
 8000d70:	4f059a0e 	bge	r9,fp,80023dc <___vfprintf_internal_r+0x1c74>
 8000d74:	8809883a 	mov	r4,r17
 8000d78:	01420074 	movhi	r5,2049
 8000d7c:	297edf84 	addi	r5,r5,-1154
 8000d80:	dc013c15 	stw	r16,1264(sp)
 8000d84:	e023883a 	mov	r17,fp
 8000d88:	d9413615 	stw	r5,1240(sp)
 8000d8c:	482d883a 	mov	r22,r9
 8000d90:	054001c4 	movi	r21,7
 8000d94:	dc012c17 	ldw	r16,1200(sp)
 8000d98:	2039883a 	mov	fp,r4
 8000d9c:	00000306 	br	8000dac <___vfprintf_internal_r+0x644>
 8000da0:	8c7ffc04 	addi	r17,r17,-16
 8000da4:	42000204 	addi	r8,r8,8
 8000da8:	b440130e 	bge	r22,r17,8000df8 <___vfprintf_internal_r+0x690>
 8000dac:	18c00404 	addi	r3,r3,16
 8000db0:	10800044 	addi	r2,r2,1
 8000db4:	01020074 	movhi	r4,2049
 8000db8:	213edf84 	addi	r4,r4,-1154
 8000dbc:	41000015 	stw	r4,0(r8)
 8000dc0:	45800115 	stw	r22,4(r8)
 8000dc4:	d8c12015 	stw	r3,1152(sp)
 8000dc8:	d8811f15 	stw	r2,1148(sp)
 8000dcc:	a8bff40e 	bge	r21,r2,8000da0 <__alt_data_end+0xfc000da0>
 8000dd0:	8009883a 	mov	r4,r16
 8000dd4:	980b883a 	mov	r5,r19
 8000dd8:	d9811e04 	addi	r6,sp,1144
 8000ddc:	8007a700 	call	8007a70 <__sprint_r>
 8000de0:	103f7d1e 	bne	r2,zero,8000bd8 <__alt_data_end+0xfc000bd8>
 8000de4:	8c7ffc04 	addi	r17,r17,-16
 8000de8:	d8c12017 	ldw	r3,1152(sp)
 8000dec:	d8811f17 	ldw	r2,1148(sp)
 8000df0:	da000404 	addi	r8,sp,16
 8000df4:	b47fed16 	blt	r22,r17,8000dac <__alt_data_end+0xfc000dac>
 8000df8:	dc013c17 	ldw	r16,1264(sp)
 8000dfc:	e009883a 	mov	r4,fp
 8000e00:	8839883a 	mov	fp,r17
 8000e04:	2023883a 	mov	r17,r4
 8000e08:	d9413617 	ldw	r5,1240(sp)
 8000e0c:	e0c7883a 	add	r3,fp,r3
 8000e10:	10800044 	addi	r2,r2,1
 8000e14:	41400015 	stw	r5,0(r8)
 8000e18:	47000115 	stw	fp,4(r8)
 8000e1c:	d8c12015 	stw	r3,1152(sp)
 8000e20:	d8811f15 	stw	r2,1148(sp)
 8000e24:	010001c4 	movi	r4,7
 8000e28:	20836b16 	blt	r4,r2,8001bd8 <___vfprintf_internal_r+0x1470>
 8000e2c:	d8812787 	ldb	r2,1182(sp)
 8000e30:	42000204 	addi	r8,r8,8
 8000e34:	10000c26 	beq	r2,zero,8000e68 <___vfprintf_internal_r+0x700>
 8000e38:	d8811f17 	ldw	r2,1148(sp)
 8000e3c:	d9012784 	addi	r4,sp,1182
 8000e40:	18c00044 	addi	r3,r3,1
 8000e44:	10800044 	addi	r2,r2,1
 8000e48:	41000015 	stw	r4,0(r8)
 8000e4c:	01000044 	movi	r4,1
 8000e50:	41000115 	stw	r4,4(r8)
 8000e54:	d8c12015 	stw	r3,1152(sp)
 8000e58:	d8811f15 	stw	r2,1148(sp)
 8000e5c:	010001c4 	movi	r4,7
 8000e60:	2082ef16 	blt	r4,r2,8001a20 <___vfprintf_internal_r+0x12b8>
 8000e64:	42000204 	addi	r8,r8,8
 8000e68:	d8812d17 	ldw	r2,1204(sp)
 8000e6c:	10000c26 	beq	r2,zero,8000ea0 <___vfprintf_internal_r+0x738>
 8000e70:	d8811f17 	ldw	r2,1148(sp)
 8000e74:	d9012704 	addi	r4,sp,1180
 8000e78:	18c00084 	addi	r3,r3,2
 8000e7c:	10800044 	addi	r2,r2,1
 8000e80:	41000015 	stw	r4,0(r8)
 8000e84:	01000084 	movi	r4,2
 8000e88:	41000115 	stw	r4,4(r8)
 8000e8c:	d8c12015 	stw	r3,1152(sp)
 8000e90:	d8811f15 	stw	r2,1148(sp)
 8000e94:	010001c4 	movi	r4,7
 8000e98:	2082e916 	blt	r4,r2,8001a40 <___vfprintf_internal_r+0x12d8>
 8000e9c:	42000204 	addi	r8,r8,8
 8000ea0:	d9013217 	ldw	r4,1224(sp)
 8000ea4:	00802004 	movi	r2,128
 8000ea8:	20823226 	beq	r4,r2,8001774 <___vfprintf_internal_r+0x100c>
 8000eac:	d9012e17 	ldw	r4,1208(sp)
 8000eb0:	a129c83a 	sub	r20,r20,r4
 8000eb4:	05002d0e 	bge	zero,r20,8000f6c <___vfprintf_internal_r+0x804>
 8000eb8:	05800404 	movi	r22,16
 8000ebc:	d8811f17 	ldw	r2,1148(sp)
 8000ec0:	05420074 	movhi	r21,2049
 8000ec4:	ad7edb84 	addi	r21,r21,-1170
 8000ec8:	b5001f0e 	bge	r22,r20,8000f48 <___vfprintf_internal_r+0x7e0>
 8000ecc:	8809883a 	mov	r4,r17
 8000ed0:	dc012d15 	stw	r16,1204(sp)
 8000ed4:	a023883a 	mov	r17,r20
 8000ed8:	070001c4 	movi	fp,7
 8000edc:	dc012c17 	ldw	r16,1200(sp)
 8000ee0:	2029883a 	mov	r20,r4
 8000ee4:	00000306 	br	8000ef4 <___vfprintf_internal_r+0x78c>
 8000ee8:	8c7ffc04 	addi	r17,r17,-16
 8000eec:	42000204 	addi	r8,r8,8
 8000ef0:	b440110e 	bge	r22,r17,8000f38 <___vfprintf_internal_r+0x7d0>
 8000ef4:	18c00404 	addi	r3,r3,16
 8000ef8:	10800044 	addi	r2,r2,1
 8000efc:	45c00015 	stw	r23,0(r8)
 8000f00:	45800115 	stw	r22,4(r8)
 8000f04:	d8c12015 	stw	r3,1152(sp)
 8000f08:	d8811f15 	stw	r2,1148(sp)
 8000f0c:	e0bff60e 	bge	fp,r2,8000ee8 <__alt_data_end+0xfc000ee8>
 8000f10:	8009883a 	mov	r4,r16
 8000f14:	980b883a 	mov	r5,r19
 8000f18:	d9811e04 	addi	r6,sp,1144
 8000f1c:	8007a700 	call	8007a70 <__sprint_r>
 8000f20:	103f2d1e 	bne	r2,zero,8000bd8 <__alt_data_end+0xfc000bd8>
 8000f24:	8c7ffc04 	addi	r17,r17,-16
 8000f28:	d8c12017 	ldw	r3,1152(sp)
 8000f2c:	d8811f17 	ldw	r2,1148(sp)
 8000f30:	da000404 	addi	r8,sp,16
 8000f34:	b47fef16 	blt	r22,r17,8000ef4 <__alt_data_end+0xfc000ef4>
 8000f38:	dc012d17 	ldw	r16,1204(sp)
 8000f3c:	a009883a 	mov	r4,r20
 8000f40:	8829883a 	mov	r20,r17
 8000f44:	2023883a 	mov	r17,r4
 8000f48:	1d07883a 	add	r3,r3,r20
 8000f4c:	10800044 	addi	r2,r2,1
 8000f50:	45400015 	stw	r21,0(r8)
 8000f54:	45000115 	stw	r20,4(r8)
 8000f58:	d8c12015 	stw	r3,1152(sp)
 8000f5c:	d8811f15 	stw	r2,1148(sp)
 8000f60:	010001c4 	movi	r4,7
 8000f64:	2082a616 	blt	r4,r2,8001a00 <___vfprintf_internal_r+0x1298>
 8000f68:	42000204 	addi	r8,r8,8
 8000f6c:	d9412a17 	ldw	r5,1192(sp)
 8000f70:	2880400c 	andi	r2,r5,256
 8000f74:	1001b51e 	bne	r2,zero,800164c <___vfprintf_internal_r+0xee4>
 8000f78:	d8812e17 	ldw	r2,1208(sp)
 8000f7c:	d9012e17 	ldw	r4,1208(sp)
 8000f80:	44000015 	stw	r16,0(r8)
 8000f84:	1887883a 	add	r3,r3,r2
 8000f88:	d8811f17 	ldw	r2,1148(sp)
 8000f8c:	10800044 	addi	r2,r2,1
 8000f90:	41000115 	stw	r4,4(r8)
 8000f94:	d8c12015 	stw	r3,1152(sp)
 8000f98:	d8811f15 	stw	r2,1148(sp)
 8000f9c:	010001c4 	movi	r4,7
 8000fa0:	20818b16 	blt	r4,r2,80015d0 <___vfprintf_internal_r+0xe68>
 8000fa4:	42000204 	addi	r8,r8,8
 8000fa8:	d9412a17 	ldw	r5,1192(sp)
 8000fac:	2880010c 	andi	r2,r5,4
 8000fb0:	10003226 	beq	r2,zero,800107c <___vfprintf_internal_r+0x914>
 8000fb4:	d8813017 	ldw	r2,1216(sp)
 8000fb8:	d9012b17 	ldw	r4,1196(sp)
 8000fbc:	1121c83a 	sub	r16,r2,r4
 8000fc0:	04002e0e 	bge	zero,r16,800107c <___vfprintf_internal_r+0x914>
 8000fc4:	04800404 	movi	r18,16
 8000fc8:	d8811f17 	ldw	r2,1148(sp)
 8000fcc:	9405240e 	bge	r18,r16,8002460 <___vfprintf_internal_r+0x1cf8>
 8000fd0:	01020074 	movhi	r4,2049
 8000fd4:	213edf84 	addi	r4,r4,-1154
 8000fd8:	d9013615 	stw	r4,1240(sp)
 8000fdc:	050001c4 	movi	r20,7
 8000fe0:	dd412c17 	ldw	r21,1200(sp)
 8000fe4:	00000306 	br	8000ff4 <___vfprintf_internal_r+0x88c>
 8000fe8:	843ffc04 	addi	r16,r16,-16
 8000fec:	42000204 	addi	r8,r8,8
 8000ff0:	9400130e 	bge	r18,r16,8001040 <___vfprintf_internal_r+0x8d8>
 8000ff4:	18c00404 	addi	r3,r3,16
 8000ff8:	10800044 	addi	r2,r2,1
 8000ffc:	01420074 	movhi	r5,2049
 8001000:	297edf84 	addi	r5,r5,-1154
 8001004:	41400015 	stw	r5,0(r8)
 8001008:	44800115 	stw	r18,4(r8)
 800100c:	d8c12015 	stw	r3,1152(sp)
 8001010:	d8811f15 	stw	r2,1148(sp)
 8001014:	a0bff40e 	bge	r20,r2,8000fe8 <__alt_data_end+0xfc000fe8>
 8001018:	a809883a 	mov	r4,r21
 800101c:	980b883a 	mov	r5,r19
 8001020:	d9811e04 	addi	r6,sp,1144
 8001024:	8007a700 	call	8007a70 <__sprint_r>
 8001028:	103eeb1e 	bne	r2,zero,8000bd8 <__alt_data_end+0xfc000bd8>
 800102c:	843ffc04 	addi	r16,r16,-16
 8001030:	d8c12017 	ldw	r3,1152(sp)
 8001034:	d8811f17 	ldw	r2,1148(sp)
 8001038:	da000404 	addi	r8,sp,16
 800103c:	943fed16 	blt	r18,r16,8000ff4 <__alt_data_end+0xfc000ff4>
 8001040:	d9013617 	ldw	r4,1240(sp)
 8001044:	1c07883a 	add	r3,r3,r16
 8001048:	10800044 	addi	r2,r2,1
 800104c:	41000015 	stw	r4,0(r8)
 8001050:	44000115 	stw	r16,4(r8)
 8001054:	d8c12015 	stw	r3,1152(sp)
 8001058:	d8811f15 	stw	r2,1148(sp)
 800105c:	010001c4 	movi	r4,7
 8001060:	2080060e 	bge	r4,r2,800107c <___vfprintf_internal_r+0x914>
 8001064:	d9012c17 	ldw	r4,1200(sp)
 8001068:	980b883a 	mov	r5,r19
 800106c:	d9811e04 	addi	r6,sp,1144
 8001070:	8007a700 	call	8007a70 <__sprint_r>
 8001074:	103ed81e 	bne	r2,zero,8000bd8 <__alt_data_end+0xfc000bd8>
 8001078:	d8c12017 	ldw	r3,1152(sp)
 800107c:	d8812b17 	ldw	r2,1196(sp)
 8001080:	d9413017 	ldw	r5,1216(sp)
 8001084:	1140010e 	bge	r2,r5,800108c <___vfprintf_internal_r+0x924>
 8001088:	2805883a 	mov	r2,r5
 800108c:	d9013117 	ldw	r4,1220(sp)
 8001090:	2089883a 	add	r4,r4,r2
 8001094:	d9013115 	stw	r4,1220(sp)
 8001098:	1802381e 	bne	r3,zero,800197c <___vfprintf_internal_r+0x1214>
 800109c:	88800007 	ldb	r2,0(r17)
 80010a0:	d8011f15 	stw	zero,1148(sp)
 80010a4:	da000404 	addi	r8,sp,16
 80010a8:	103def1e 	bne	r2,zero,8000868 <__alt_data_end+0xfc000868>
 80010ac:	8821883a 	mov	r16,r17
 80010b0:	003e0506 	br	80008c8 <__alt_data_end+0xfc0008c8>
 80010b4:	1829883a 	mov	r20,r3
 80010b8:	d8c12a17 	ldw	r3,1192(sp)
 80010bc:	dd812785 	stb	r22,1182(sp)
 80010c0:	e011883a 	mov	r8,fp
 80010c4:	1880020c 	andi	r2,r3,8
 80010c8:	1003c926 	beq	r2,zero,8001ff0 <___vfprintf_internal_r+0x1888>
 80010cc:	d9012f17 	ldw	r4,1212(sp)
 80010d0:	d9412f17 	ldw	r5,1212(sp)
 80010d4:	d8812f17 	ldw	r2,1212(sp)
 80010d8:	21000017 	ldw	r4,0(r4)
 80010dc:	29400117 	ldw	r5,4(r5)
 80010e0:	10800204 	addi	r2,r2,8
 80010e4:	d9013715 	stw	r4,1244(sp)
 80010e8:	d9413915 	stw	r5,1252(sp)
 80010ec:	d8812f15 	stw	r2,1212(sp)
 80010f0:	d9013717 	ldw	r4,1244(sp)
 80010f4:	d9413917 	ldw	r5,1252(sp)
 80010f8:	da013f15 	stw	r8,1276(sp)
 80010fc:	04000044 	movi	r16,1
 8001100:	80076c80 	call	80076c8 <__fpclassifyd>
 8001104:	da013f17 	ldw	r8,1276(sp)
 8001108:	d9013717 	ldw	r4,1244(sp)
 800110c:	d9413917 	ldw	r5,1252(sp)
 8001110:	1403571e 	bne	r2,r16,8001e70 <___vfprintf_internal_r+0x1708>
 8001114:	000d883a 	mov	r6,zero
 8001118:	000f883a 	mov	r7,zero
 800111c:	800ba4c0 	call	800ba4c <__ledf2>
 8001120:	da013f17 	ldw	r8,1276(sp)
 8001124:	1004f416 	blt	r2,zero,80024f8 <___vfprintf_internal_r+0x1d90>
 8001128:	df012783 	ldbu	fp,1182(sp)
 800112c:	008011c4 	movi	r2,71
 8001130:	14847a0e 	bge	r2,r18,800231c <___vfprintf_internal_r+0x1bb4>
 8001134:	04020074 	movhi	r16,2049
 8001138:	843ecc04 	addi	r16,r16,-1232
 800113c:	d9012a17 	ldw	r4,1192(sp)
 8001140:	00bfdfc4 	movi	r2,-129
 8001144:	00c000c4 	movi	r3,3
 8001148:	2088703a 	and	r4,r4,r2
 800114c:	d8c12b15 	stw	r3,1196(sp)
 8001150:	d9012a15 	stw	r4,1192(sp)
 8001154:	d8c12e15 	stw	r3,1208(sp)
 8001158:	0029883a 	mov	r20,zero
 800115c:	d8013315 	stw	zero,1228(sp)
 8001160:	003eea06 	br	8000d0c <__alt_data_end+0xfc000d0c>
 8001164:	953ff404 	addi	r20,r18,-48
 8001168:	d8013015 	stw	zero,1216(sp)
 800116c:	0009883a 	mov	r4,zero
 8001170:	1825883a 	mov	r18,r3
 8001174:	01400284 	movi	r5,10
 8001178:	800a6b00 	call	800a6b0 <__mulsi3>
 800117c:	88c00007 	ldb	r3,0(r17)
 8001180:	1509883a 	add	r4,r2,r20
 8001184:	8c400044 	addi	r17,r17,1
 8001188:	1d3ff404 	addi	r20,r3,-48
 800118c:	8805883a 	mov	r2,r17
 8001190:	ad3ff82e 	bgeu	r21,r20,8001174 <__alt_data_end+0xfc001174>
 8001194:	d9013015 	stw	r4,1216(sp)
 8001198:	9009883a 	mov	r4,r18
 800119c:	1023883a 	mov	r17,r2
 80011a0:	1825883a 	mov	r18,r3
 80011a4:	2007883a 	mov	r3,r4
 80011a8:	003dd506 	br	8000900 <__alt_data_end+0xfc000900>
 80011ac:	d8812a17 	ldw	r2,1192(sp)
 80011b0:	10800214 	ori	r2,r2,8
 80011b4:	d8812a15 	stw	r2,1192(sp)
 80011b8:	8c800007 	ldb	r18,0(r17)
 80011bc:	003dcf06 	br	80008fc <__alt_data_end+0xfc0008fc>
 80011c0:	d9012a17 	ldw	r4,1192(sp)
 80011c4:	e011883a 	mov	r8,fp
 80011c8:	1829883a 	mov	r20,r3
 80011cc:	21000414 	ori	r4,r4,16
 80011d0:	d9012a15 	stw	r4,1192(sp)
 80011d4:	d9412a17 	ldw	r5,1192(sp)
 80011d8:	2880080c 	andi	r2,r5,32
 80011dc:	1000cf26 	beq	r2,zero,800151c <___vfprintf_internal_r+0xdb4>
 80011e0:	d8812f17 	ldw	r2,1212(sp)
 80011e4:	0007883a 	mov	r3,zero
 80011e8:	15400017 	ldw	r21,0(r2)
 80011ec:	15800117 	ldw	r22,4(r2)
 80011f0:	10800204 	addi	r2,r2,8
 80011f4:	d8812f15 	stw	r2,1212(sp)
 80011f8:	ad84b03a 	or	r2,r21,r22
 80011fc:	d8012785 	stb	zero,1182(sp)
 8001200:	0039883a 	mov	fp,zero
 8001204:	003eab06 	br	8000cb4 <__alt_data_end+0xfc000cb4>
 8001208:	d9012a17 	ldw	r4,1192(sp)
 800120c:	e011883a 	mov	r8,fp
 8001210:	1829883a 	mov	r20,r3
 8001214:	21000414 	ori	r4,r4,16
 8001218:	d9012a15 	stw	r4,1192(sp)
 800121c:	d9412a17 	ldw	r5,1192(sp)
 8001220:	2880080c 	andi	r2,r5,32
 8001224:	1000cd26 	beq	r2,zero,800155c <___vfprintf_internal_r+0xdf4>
 8001228:	d8812f17 	ldw	r2,1212(sp)
 800122c:	00c00044 	movi	r3,1
 8001230:	15400017 	ldw	r21,0(r2)
 8001234:	15800117 	ldw	r22,4(r2)
 8001238:	10800204 	addi	r2,r2,8
 800123c:	d8812f15 	stw	r2,1212(sp)
 8001240:	ad84b03a 	or	r2,r21,r22
 8001244:	003fed06 	br	80011fc <__alt_data_end+0xfc0011fc>
 8001248:	d9012a17 	ldw	r4,1192(sp)
 800124c:	dd812785 	stb	r22,1182(sp)
 8001250:	e011883a 	mov	r8,fp
 8001254:	2080080c 	andi	r2,r4,32
 8001258:	10039226 	beq	r2,zero,80020a4 <___vfprintf_internal_r+0x193c>
 800125c:	d9412f17 	ldw	r5,1212(sp)
 8001260:	d9013117 	ldw	r4,1220(sp)
 8001264:	28800017 	ldw	r2,0(r5)
 8001268:	2007d7fa 	srai	r3,r4,31
 800126c:	29400104 	addi	r5,r5,4
 8001270:	d9412f15 	stw	r5,1212(sp)
 8001274:	11000015 	stw	r4,0(r2)
 8001278:	10c00115 	stw	r3,4(r2)
 800127c:	003d7806 	br	8000860 <__alt_data_end+0xfc000860>
 8001280:	d8c12f17 	ldw	r3,1212(sp)
 8001284:	d9012f17 	ldw	r4,1212(sp)
 8001288:	e011883a 	mov	r8,fp
 800128c:	18800017 	ldw	r2,0(r3)
 8001290:	21000104 	addi	r4,r4,4
 8001294:	00c00044 	movi	r3,1
 8001298:	d8c12b15 	stw	r3,1196(sp)
 800129c:	d8012785 	stb	zero,1182(sp)
 80012a0:	d8810405 	stb	r2,1040(sp)
 80012a4:	d9012f15 	stw	r4,1212(sp)
 80012a8:	d8c12e15 	stw	r3,1208(sp)
 80012ac:	0029883a 	mov	r20,zero
 80012b0:	d8013315 	stw	zero,1228(sp)
 80012b4:	dc010404 	addi	r16,sp,1040
 80012b8:	0005883a 	mov	r2,zero
 80012bc:	003e9a06 	br	8000d28 <__alt_data_end+0xfc000d28>
 80012c0:	d9412a17 	ldw	r5,1192(sp)
 80012c4:	01020074 	movhi	r4,2049
 80012c8:	213ed404 	addi	r4,r4,-1200
 80012cc:	dd812785 	stb	r22,1182(sp)
 80012d0:	d9013b15 	stw	r4,1260(sp)
 80012d4:	2880080c 	andi	r2,r5,32
 80012d8:	e011883a 	mov	r8,fp
 80012dc:	1829883a 	mov	r20,r3
 80012e0:	10002f26 	beq	r2,zero,80013a0 <___vfprintf_internal_r+0xc38>
 80012e4:	d8812f17 	ldw	r2,1212(sp)
 80012e8:	15400017 	ldw	r21,0(r2)
 80012ec:	15800117 	ldw	r22,4(r2)
 80012f0:	10800204 	addi	r2,r2,8
 80012f4:	d8812f15 	stw	r2,1212(sp)
 80012f8:	d9012a17 	ldw	r4,1192(sp)
 80012fc:	2080004c 	andi	r2,r4,1
 8001300:	10025f26 	beq	r2,zero,8001c80 <___vfprintf_internal_r+0x1518>
 8001304:	ad84b03a 	or	r2,r21,r22
 8001308:	10034e26 	beq	r2,zero,8002044 <___vfprintf_internal_r+0x18dc>
 800130c:	00c00c04 	movi	r3,48
 8001310:	21000094 	ori	r4,r4,2
 8001314:	d8c12705 	stb	r3,1180(sp)
 8001318:	dc812745 	stb	r18,1181(sp)
 800131c:	d9012a15 	stw	r4,1192(sp)
 8001320:	00c00084 	movi	r3,2
 8001324:	003fb506 	br	80011fc <__alt_data_end+0xfc0011fc>
 8001328:	b0803fcc 	andi	r2,r22,255
 800132c:	1080201c 	xori	r2,r2,128
 8001330:	10bfe004 	addi	r2,r2,-128
 8001334:	1003501e 	bne	r2,zero,8002078 <___vfprintf_internal_r+0x1910>
 8001338:	05800804 	movi	r22,32
 800133c:	8c800007 	ldb	r18,0(r17)
 8001340:	003d6e06 	br	80008fc <__alt_data_end+0xfc0008fc>
 8001344:	d9012a17 	ldw	r4,1192(sp)
 8001348:	21000054 	ori	r4,r4,1
 800134c:	d9012a15 	stw	r4,1192(sp)
 8001350:	8c800007 	ldb	r18,0(r17)
 8001354:	003d6906 	br	80008fc <__alt_data_end+0xfc0008fc>
 8001358:	d9412f17 	ldw	r5,1212(sp)
 800135c:	d9012f17 	ldw	r4,1212(sp)
 8001360:	29400017 	ldw	r5,0(r5)
 8001364:	20800104 	addi	r2,r4,4
 8001368:	d9413015 	stw	r5,1216(sp)
 800136c:	283dc616 	blt	r5,zero,8000a88 <__alt_data_end+0xfc000a88>
 8001370:	d8812f15 	stw	r2,1212(sp)
 8001374:	8c800007 	ldb	r18,0(r17)
 8001378:	003d6006 	br	80008fc <__alt_data_end+0xfc0008fc>
 800137c:	d9412a17 	ldw	r5,1192(sp)
 8001380:	00820074 	movhi	r2,2049
 8001384:	10becf04 	addi	r2,r2,-1220
 8001388:	d8813b15 	stw	r2,1260(sp)
 800138c:	dd812785 	stb	r22,1182(sp)
 8001390:	2880080c 	andi	r2,r5,32
 8001394:	e011883a 	mov	r8,fp
 8001398:	1829883a 	mov	r20,r3
 800139c:	103fd11e 	bne	r2,zero,80012e4 <__alt_data_end+0xfc0012e4>
 80013a0:	d8c12a17 	ldw	r3,1192(sp)
 80013a4:	1880040c 	andi	r2,r3,16
 80013a8:	10033526 	beq	r2,zero,8002080 <___vfprintf_internal_r+0x1918>
 80013ac:	d9012f17 	ldw	r4,1212(sp)
 80013b0:	002d883a 	mov	r22,zero
 80013b4:	25400017 	ldw	r21,0(r4)
 80013b8:	21000104 	addi	r4,r4,4
 80013bc:	d9012f15 	stw	r4,1212(sp)
 80013c0:	003fcd06 	br	80012f8 <__alt_data_end+0xfc0012f8>
 80013c4:	d9012a17 	ldw	r4,1192(sp)
 80013c8:	21001014 	ori	r4,r4,64
 80013cc:	d9012a15 	stw	r4,1192(sp)
 80013d0:	8c800007 	ldb	r18,0(r17)
 80013d4:	003d4906 	br	80008fc <__alt_data_end+0xfc0008fc>
 80013d8:	8c800007 	ldb	r18,0(r17)
 80013dc:	01401b04 	movi	r5,108
 80013e0:	8805883a 	mov	r2,r17
 80013e4:	9143db26 	beq	r18,r5,8002354 <___vfprintf_internal_r+0x1bec>
 80013e8:	d9412a17 	ldw	r5,1192(sp)
 80013ec:	29400414 	ori	r5,r5,16
 80013f0:	d9412a15 	stw	r5,1192(sp)
 80013f4:	003d4106 	br	80008fc <__alt_data_end+0xfc0008fc>
 80013f8:	1829883a 	mov	r20,r3
 80013fc:	d8c12a17 	ldw	r3,1192(sp)
 8001400:	dd812785 	stb	r22,1182(sp)
 8001404:	e011883a 	mov	r8,fp
 8001408:	1880080c 	andi	r2,r3,32
 800140c:	103e1f1e 	bne	r2,zero,8000c8c <__alt_data_end+0xfc000c8c>
 8001410:	d9412a17 	ldw	r5,1192(sp)
 8001414:	2880040c 	andi	r2,r5,16
 8001418:	10032f26 	beq	r2,zero,80020d8 <___vfprintf_internal_r+0x1970>
 800141c:	d8812f17 	ldw	r2,1212(sp)
 8001420:	15400017 	ldw	r21,0(r2)
 8001424:	10800104 	addi	r2,r2,4
 8001428:	d8812f15 	stw	r2,1212(sp)
 800142c:	a82dd7fa 	srai	r22,r21,31
 8001430:	b005883a 	mov	r2,r22
 8001434:	003e1b06 	br	8000ca4 <__alt_data_end+0xfc000ca4>
 8001438:	d8812a17 	ldw	r2,1192(sp)
 800143c:	10800814 	ori	r2,r2,32
 8001440:	d8812a15 	stw	r2,1192(sp)
 8001444:	8c800007 	ldb	r18,0(r17)
 8001448:	003d2c06 	br	80008fc <__alt_data_end+0xfc0008fc>
 800144c:	1829883a 	mov	r20,r3
 8001450:	d8c12f17 	ldw	r3,1212(sp)
 8001454:	d8012785 	stb	zero,1182(sp)
 8001458:	e011883a 	mov	r8,fp
 800145c:	1c000017 	ldw	r16,0(r3)
 8001460:	1d400104 	addi	r21,r3,4
 8001464:	80040226 	beq	r16,zero,8002470 <___vfprintf_internal_r+0x1d08>
 8001468:	8009883a 	mov	r4,r16
 800146c:	a003c716 	blt	r20,zero,800238c <___vfprintf_internal_r+0x1c24>
 8001470:	000b883a 	mov	r5,zero
 8001474:	a00d883a 	mov	r6,r20
 8001478:	df013f15 	stw	fp,1276(sp)
 800147c:	8005cf80 	call	8005cf8 <memchr>
 8001480:	da013f17 	ldw	r8,1276(sp)
 8001484:	10044326 	beq	r2,zero,8002594 <___vfprintf_internal_r+0x1e2c>
 8001488:	1405c83a 	sub	r2,r2,r16
 800148c:	d8812e15 	stw	r2,1208(sp)
 8001490:	a0837c16 	blt	r20,r2,8002284 <___vfprintf_internal_r+0x1b1c>
 8001494:	d8812e17 	ldw	r2,1208(sp)
 8001498:	1003c116 	blt	r2,zero,80023a0 <___vfprintf_internal_r+0x1c38>
 800149c:	df012783 	ldbu	fp,1182(sp)
 80014a0:	d8812b15 	stw	r2,1196(sp)
 80014a4:	dd412f15 	stw	r21,1212(sp)
 80014a8:	0029883a 	mov	r20,zero
 80014ac:	d8013315 	stw	zero,1228(sp)
 80014b0:	003e1606 	br	8000d0c <__alt_data_end+0xfc000d0c>
 80014b4:	d9012f17 	ldw	r4,1212(sp)
 80014b8:	d9412a17 	ldw	r5,1192(sp)
 80014bc:	00800c04 	movi	r2,48
 80014c0:	25400017 	ldw	r21,0(r4)
 80014c4:	d8812705 	stb	r2,1180(sp)
 80014c8:	00801e04 	movi	r2,120
 80014cc:	29400094 	ori	r5,r5,2
 80014d0:	d8812745 	stb	r2,1181(sp)
 80014d4:	21000104 	addi	r4,r4,4
 80014d8:	00820074 	movhi	r2,2049
 80014dc:	10bed404 	addi	r2,r2,-1200
 80014e0:	1829883a 	mov	r20,r3
 80014e4:	d8813b15 	stw	r2,1260(sp)
 80014e8:	e011883a 	mov	r8,fp
 80014ec:	002d883a 	mov	r22,zero
 80014f0:	d9412a15 	stw	r5,1192(sp)
 80014f4:	d9012f15 	stw	r4,1212(sp)
 80014f8:	00c00084 	movi	r3,2
 80014fc:	04801e04 	movi	r18,120
 8001500:	a805883a 	mov	r2,r21
 8001504:	003f3d06 	br	80011fc <__alt_data_end+0xfc0011fc>
 8001508:	d9412a17 	ldw	r5,1192(sp)
 800150c:	e011883a 	mov	r8,fp
 8001510:	1829883a 	mov	r20,r3
 8001514:	2880080c 	andi	r2,r5,32
 8001518:	103f311e 	bne	r2,zero,80011e0 <__alt_data_end+0xfc0011e0>
 800151c:	d8c12a17 	ldw	r3,1192(sp)
 8001520:	1880040c 	andi	r2,r3,16
 8001524:	1002c926 	beq	r2,zero,800204c <___vfprintf_internal_r+0x18e4>
 8001528:	d9012f17 	ldw	r4,1212(sp)
 800152c:	002d883a 	mov	r22,zero
 8001530:	0007883a 	mov	r3,zero
 8001534:	25400017 	ldw	r21,0(r4)
 8001538:	21000104 	addi	r4,r4,4
 800153c:	d9012f15 	stw	r4,1212(sp)
 8001540:	a805883a 	mov	r2,r21
 8001544:	003f2d06 	br	80011fc <__alt_data_end+0xfc0011fc>
 8001548:	d9412a17 	ldw	r5,1192(sp)
 800154c:	e011883a 	mov	r8,fp
 8001550:	1829883a 	mov	r20,r3
 8001554:	2880080c 	andi	r2,r5,32
 8001558:	103f331e 	bne	r2,zero,8001228 <__alt_data_end+0xfc001228>
 800155c:	d8c12a17 	ldw	r3,1192(sp)
 8001560:	1880040c 	andi	r2,r3,16
 8001564:	1002ac26 	beq	r2,zero,8002018 <___vfprintf_internal_r+0x18b0>
 8001568:	d9012f17 	ldw	r4,1212(sp)
 800156c:	002d883a 	mov	r22,zero
 8001570:	00c00044 	movi	r3,1
 8001574:	25400017 	ldw	r21,0(r4)
 8001578:	21000104 	addi	r4,r4,4
 800157c:	d9012f15 	stw	r4,1212(sp)
 8001580:	a805883a 	mov	r2,r21
 8001584:	003f1d06 	br	80011fc <__alt_data_end+0xfc0011fc>
 8001588:	dd812785 	stb	r22,1182(sp)
 800158c:	e011883a 	mov	r8,fp
 8001590:	903d8b26 	beq	r18,zero,8000bc0 <__alt_data_end+0xfc000bc0>
 8001594:	00c00044 	movi	r3,1
 8001598:	d8c12b15 	stw	r3,1196(sp)
 800159c:	dc810405 	stb	r18,1040(sp)
 80015a0:	d8012785 	stb	zero,1182(sp)
 80015a4:	003f4006 	br	80012a8 <__alt_data_end+0xfc0012a8>
 80015a8:	d8c12017 	ldw	r3,1152(sp)
 80015ac:	003e2106 	br	8000e34 <__alt_data_end+0xfc000e34>
 80015b0:	45400015 	stw	r21,0(r8)
 80015b4:	44000115 	stw	r16,4(r8)
 80015b8:	1c07883a 	add	r3,r3,r16
 80015bc:	10800044 	addi	r2,r2,1
 80015c0:	d8c12015 	stw	r3,1152(sp)
 80015c4:	d8811f15 	stw	r2,1148(sp)
 80015c8:	010001c4 	movi	r4,7
 80015cc:	20be750e 	bge	r4,r2,8000fa4 <__alt_data_end+0xfc000fa4>
 80015d0:	d9012c17 	ldw	r4,1200(sp)
 80015d4:	980b883a 	mov	r5,r19
 80015d8:	d9811e04 	addi	r6,sp,1144
 80015dc:	8007a700 	call	8007a70 <__sprint_r>
 80015e0:	103d7d1e 	bne	r2,zero,8000bd8 <__alt_data_end+0xfc000bd8>
 80015e4:	d8c12017 	ldw	r3,1152(sp)
 80015e8:	da000404 	addi	r8,sp,16
 80015ec:	003e6e06 	br	8000fa8 <__alt_data_end+0xfc000fa8>
 80015f0:	18803fcc 	andi	r2,r3,255
 80015f4:	00c00044 	movi	r3,1
 80015f8:	10c11926 	beq	r2,r3,8001a60 <___vfprintf_internal_r+0x12f8>
 80015fc:	00c00084 	movi	r3,2
 8001600:	10c0e41e 	bne	r2,r3,8001994 <___vfprintf_internal_r+0x122c>
 8001604:	d9413b17 	ldw	r5,1260(sp)
 8001608:	d8c10dc4 	addi	r3,sp,1079
 800160c:	a88003cc 	andi	r2,r21,15
 8001610:	b008973a 	slli	r4,r22,28
 8001614:	2885883a 	add	r2,r5,r2
 8001618:	a82ad13a 	srli	r21,r21,4
 800161c:	10800003 	ldbu	r2,0(r2)
 8001620:	b02cd13a 	srli	r22,r22,4
 8001624:	256ab03a 	or	r21,r4,r21
 8001628:	18800005 	stb	r2,0(r3)
 800162c:	ad84b03a 	or	r2,r21,r22
 8001630:	1821883a 	mov	r16,r3
 8001634:	18ffffc4 	addi	r3,r3,-1
 8001638:	103ff41e 	bne	r2,zero,800160c <__alt_data_end+0xfc00160c>
 800163c:	d8c12917 	ldw	r3,1188(sp)
 8001640:	1c07c83a 	sub	r3,r3,r16
 8001644:	d8c12e15 	stw	r3,1208(sp)
 8001648:	003dab06 	br	8000cf8 <__alt_data_end+0xfc000cf8>
 800164c:	00801944 	movi	r2,101
 8001650:	14807e0e 	bge	r2,r18,800184c <___vfprintf_internal_r+0x10e4>
 8001654:	d9013717 	ldw	r4,1244(sp)
 8001658:	d9413917 	ldw	r5,1252(sp)
 800165c:	000d883a 	mov	r6,zero
 8001660:	000f883a 	mov	r7,zero
 8001664:	d8c13e15 	stw	r3,1272(sp)
 8001668:	da013f15 	stw	r8,1276(sp)
 800166c:	800b8f00 	call	800b8f0 <__eqdf2>
 8001670:	d8c13e17 	ldw	r3,1272(sp)
 8001674:	da013f17 	ldw	r8,1276(sp)
 8001678:	1001211e 	bne	r2,zero,8001b00 <___vfprintf_internal_r+0x1398>
 800167c:	d8811f17 	ldw	r2,1148(sp)
 8001680:	01000044 	movi	r4,1
 8001684:	18c00044 	addi	r3,r3,1
 8001688:	10800044 	addi	r2,r2,1
 800168c:	01420074 	movhi	r5,2049
 8001690:	297edb04 	addi	r5,r5,-1172
 8001694:	41000115 	stw	r4,4(r8)
 8001698:	41400015 	stw	r5,0(r8)
 800169c:	d8c12015 	stw	r3,1152(sp)
 80016a0:	d8811f15 	stw	r2,1148(sp)
 80016a4:	010001c4 	movi	r4,7
 80016a8:	2082a316 	blt	r4,r2,8002138 <___vfprintf_internal_r+0x19d0>
 80016ac:	42000204 	addi	r8,r8,8
 80016b0:	d8812617 	ldw	r2,1176(sp)
 80016b4:	d9013517 	ldw	r4,1236(sp)
 80016b8:	11000316 	blt	r2,r4,80016c8 <___vfprintf_internal_r+0xf60>
 80016bc:	d9412a17 	ldw	r5,1192(sp)
 80016c0:	2880004c 	andi	r2,r5,1
 80016c4:	103e3826 	beq	r2,zero,8000fa8 <__alt_data_end+0xfc000fa8>
 80016c8:	d8813817 	ldw	r2,1248(sp)
 80016cc:	d9013417 	ldw	r4,1232(sp)
 80016d0:	d9413817 	ldw	r5,1248(sp)
 80016d4:	1887883a 	add	r3,r3,r2
 80016d8:	d8811f17 	ldw	r2,1148(sp)
 80016dc:	41000015 	stw	r4,0(r8)
 80016e0:	41400115 	stw	r5,4(r8)
 80016e4:	10800044 	addi	r2,r2,1
 80016e8:	d8c12015 	stw	r3,1152(sp)
 80016ec:	d8811f15 	stw	r2,1148(sp)
 80016f0:	010001c4 	movi	r4,7
 80016f4:	20831d16 	blt	r4,r2,800236c <___vfprintf_internal_r+0x1c04>
 80016f8:	42000204 	addi	r8,r8,8
 80016fc:	d8813517 	ldw	r2,1236(sp)
 8001700:	143fffc4 	addi	r16,r2,-1
 8001704:	043e280e 	bge	zero,r16,8000fa8 <__alt_data_end+0xfc000fa8>
 8001708:	04800404 	movi	r18,16
 800170c:	d8811f17 	ldw	r2,1148(sp)
 8001710:	05420074 	movhi	r21,2049
 8001714:	ad7edb84 	addi	r21,r21,-1170
 8001718:	943fa50e 	bge	r18,r16,80015b0 <__alt_data_end+0xfc0015b0>
 800171c:	050001c4 	movi	r20,7
 8001720:	dd812c17 	ldw	r22,1200(sp)
 8001724:	00000306 	br	8001734 <___vfprintf_internal_r+0xfcc>
 8001728:	42000204 	addi	r8,r8,8
 800172c:	843ffc04 	addi	r16,r16,-16
 8001730:	943f9f0e 	bge	r18,r16,80015b0 <__alt_data_end+0xfc0015b0>
 8001734:	18c00404 	addi	r3,r3,16
 8001738:	10800044 	addi	r2,r2,1
 800173c:	45c00015 	stw	r23,0(r8)
 8001740:	44800115 	stw	r18,4(r8)
 8001744:	d8c12015 	stw	r3,1152(sp)
 8001748:	d8811f15 	stw	r2,1148(sp)
 800174c:	a0bff60e 	bge	r20,r2,8001728 <__alt_data_end+0xfc001728>
 8001750:	b009883a 	mov	r4,r22
 8001754:	980b883a 	mov	r5,r19
 8001758:	d9811e04 	addi	r6,sp,1144
 800175c:	8007a700 	call	8007a70 <__sprint_r>
 8001760:	103d1d1e 	bne	r2,zero,8000bd8 <__alt_data_end+0xfc000bd8>
 8001764:	d8c12017 	ldw	r3,1152(sp)
 8001768:	d8811f17 	ldw	r2,1148(sp)
 800176c:	da000404 	addi	r8,sp,16
 8001770:	003fee06 	br	800172c <__alt_data_end+0xfc00172c>
 8001774:	d9413017 	ldw	r5,1216(sp)
 8001778:	d8812b17 	ldw	r2,1196(sp)
 800177c:	28adc83a 	sub	r22,r5,r2
 8001780:	05bdca0e 	bge	zero,r22,8000eac <__alt_data_end+0xfc000eac>
 8001784:	07000404 	movi	fp,16
 8001788:	d8811f17 	ldw	r2,1148(sp)
 800178c:	05420074 	movhi	r21,2049
 8001790:	ad7edb84 	addi	r21,r21,-1170
 8001794:	e580230e 	bge	fp,r22,8001824 <___vfprintf_internal_r+0x10bc>
 8001798:	a809883a 	mov	r4,r21
 800179c:	dc012d15 	stw	r16,1204(sp)
 80017a0:	882b883a 	mov	r21,r17
 80017a4:	01c001c4 	movi	r7,7
 80017a8:	b023883a 	mov	r17,r22
 80017ac:	dc012c17 	ldw	r16,1200(sp)
 80017b0:	202d883a 	mov	r22,r4
 80017b4:	00000306 	br	80017c4 <___vfprintf_internal_r+0x105c>
 80017b8:	8c7ffc04 	addi	r17,r17,-16
 80017bc:	42000204 	addi	r8,r8,8
 80017c0:	e440130e 	bge	fp,r17,8001810 <___vfprintf_internal_r+0x10a8>
 80017c4:	18c00404 	addi	r3,r3,16
 80017c8:	10800044 	addi	r2,r2,1
 80017cc:	45c00015 	stw	r23,0(r8)
 80017d0:	47000115 	stw	fp,4(r8)
 80017d4:	d8c12015 	stw	r3,1152(sp)
 80017d8:	d8811f15 	stw	r2,1148(sp)
 80017dc:	38bff60e 	bge	r7,r2,80017b8 <__alt_data_end+0xfc0017b8>
 80017e0:	8009883a 	mov	r4,r16
 80017e4:	980b883a 	mov	r5,r19
 80017e8:	d9811e04 	addi	r6,sp,1144
 80017ec:	d9c13e15 	stw	r7,1272(sp)
 80017f0:	8007a700 	call	8007a70 <__sprint_r>
 80017f4:	d9c13e17 	ldw	r7,1272(sp)
 80017f8:	103cf71e 	bne	r2,zero,8000bd8 <__alt_data_end+0xfc000bd8>
 80017fc:	8c7ffc04 	addi	r17,r17,-16
 8001800:	d8c12017 	ldw	r3,1152(sp)
 8001804:	d8811f17 	ldw	r2,1148(sp)
 8001808:	da000404 	addi	r8,sp,16
 800180c:	e47fed16 	blt	fp,r17,80017c4 <__alt_data_end+0xfc0017c4>
 8001810:	dc012d17 	ldw	r16,1204(sp)
 8001814:	b009883a 	mov	r4,r22
 8001818:	882d883a 	mov	r22,r17
 800181c:	a823883a 	mov	r17,r21
 8001820:	202b883a 	mov	r21,r4
 8001824:	1d87883a 	add	r3,r3,r22
 8001828:	10800044 	addi	r2,r2,1
 800182c:	45400015 	stw	r21,0(r8)
 8001830:	45800115 	stw	r22,4(r8)
 8001834:	d8c12015 	stw	r3,1152(sp)
 8001838:	d8811f15 	stw	r2,1148(sp)
 800183c:	010001c4 	movi	r4,7
 8001840:	20817a16 	blt	r4,r2,8001e2c <___vfprintf_internal_r+0x16c4>
 8001844:	42000204 	addi	r8,r8,8
 8001848:	003d9806 	br	8000eac <__alt_data_end+0xfc000eac>
 800184c:	d9013517 	ldw	r4,1236(sp)
 8001850:	00800044 	movi	r2,1
 8001854:	1100340e 	bge	r2,r4,8001928 <___vfprintf_internal_r+0x11c0>
 8001858:	dc811f17 	ldw	r18,1148(sp)
 800185c:	00800044 	movi	r2,1
 8001860:	18c00044 	addi	r3,r3,1
 8001864:	94800044 	addi	r18,r18,1
 8001868:	40800115 	stw	r2,4(r8)
 800186c:	44000015 	stw	r16,0(r8)
 8001870:	d8c12015 	stw	r3,1152(sp)
 8001874:	dc811f15 	stw	r18,1148(sp)
 8001878:	008001c4 	movi	r2,7
 800187c:	14814e16 	blt	r2,r18,8001db8 <___vfprintf_internal_r+0x1650>
 8001880:	42000204 	addi	r8,r8,8
 8001884:	d8813817 	ldw	r2,1248(sp)
 8001888:	94800044 	addi	r18,r18,1
 800188c:	dc811f15 	stw	r18,1148(sp)
 8001890:	18ad883a 	add	r22,r3,r2
 8001894:	d8c13417 	ldw	r3,1232(sp)
 8001898:	40800115 	stw	r2,4(r8)
 800189c:	dd812015 	stw	r22,1152(sp)
 80018a0:	40c00015 	stw	r3,0(r8)
 80018a4:	008001c4 	movi	r2,7
 80018a8:	14814c16 	blt	r2,r18,8001ddc <___vfprintf_internal_r+0x1674>
 80018ac:	45000204 	addi	r20,r8,8
 80018b0:	d9013717 	ldw	r4,1244(sp)
 80018b4:	d9413917 	ldw	r5,1252(sp)
 80018b8:	000d883a 	mov	r6,zero
 80018bc:	000f883a 	mov	r7,zero
 80018c0:	800b8f00 	call	800b8f0 <__eqdf2>
 80018c4:	1000cd26 	beq	r2,zero,8001bfc <___vfprintf_internal_r+0x1494>
 80018c8:	d9013517 	ldw	r4,1236(sp)
 80018cc:	84000044 	addi	r16,r16,1
 80018d0:	94800044 	addi	r18,r18,1
 80018d4:	20bfffc4 	addi	r2,r4,-1
 80018d8:	b0ad883a 	add	r22,r22,r2
 80018dc:	a0800115 	stw	r2,4(r20)
 80018e0:	a4000015 	stw	r16,0(r20)
 80018e4:	dd812015 	stw	r22,1152(sp)
 80018e8:	dc811f15 	stw	r18,1148(sp)
 80018ec:	008001c4 	movi	r2,7
 80018f0:	14801916 	blt	r2,r18,8001958 <___vfprintf_internal_r+0x11f0>
 80018f4:	a5000204 	addi	r20,r20,8
 80018f8:	d9013a17 	ldw	r4,1256(sp)
 80018fc:	d88122c4 	addi	r2,sp,1163
 8001900:	94800044 	addi	r18,r18,1
 8001904:	2587883a 	add	r3,r4,r22
 8001908:	a0800015 	stw	r2,0(r20)
 800190c:	a1000115 	stw	r4,4(r20)
 8001910:	d8c12015 	stw	r3,1152(sp)
 8001914:	dc811f15 	stw	r18,1148(sp)
 8001918:	008001c4 	movi	r2,7
 800191c:	14bf2c16 	blt	r2,r18,80015d0 <__alt_data_end+0xfc0015d0>
 8001920:	a2000204 	addi	r8,r20,8
 8001924:	003da006 	br	8000fa8 <__alt_data_end+0xfc000fa8>
 8001928:	d9412a17 	ldw	r5,1192(sp)
 800192c:	2888703a 	and	r4,r5,r2
 8001930:	203fc91e 	bne	r4,zero,8001858 <__alt_data_end+0xfc001858>
 8001934:	dc811f17 	ldw	r18,1148(sp)
 8001938:	1d800044 	addi	r22,r3,1
 800193c:	40800115 	stw	r2,4(r8)
 8001940:	94800044 	addi	r18,r18,1
 8001944:	44000015 	stw	r16,0(r8)
 8001948:	dd812015 	stw	r22,1152(sp)
 800194c:	dc811f15 	stw	r18,1148(sp)
 8001950:	008001c4 	movi	r2,7
 8001954:	1482740e 	bge	r2,r18,8002328 <___vfprintf_internal_r+0x1bc0>
 8001958:	d9012c17 	ldw	r4,1200(sp)
 800195c:	980b883a 	mov	r5,r19
 8001960:	d9811e04 	addi	r6,sp,1144
 8001964:	8007a700 	call	8007a70 <__sprint_r>
 8001968:	103c9b1e 	bne	r2,zero,8000bd8 <__alt_data_end+0xfc000bd8>
 800196c:	dd812017 	ldw	r22,1152(sp)
 8001970:	dc811f17 	ldw	r18,1148(sp)
 8001974:	dd000404 	addi	r20,sp,16
 8001978:	003fdf06 	br	80018f8 <__alt_data_end+0xfc0018f8>
 800197c:	d9012c17 	ldw	r4,1200(sp)
 8001980:	980b883a 	mov	r5,r19
 8001984:	d9811e04 	addi	r6,sp,1144
 8001988:	8007a700 	call	8007a70 <__sprint_r>
 800198c:	103dc326 	beq	r2,zero,800109c <__alt_data_end+0xfc00109c>
 8001990:	003c9106 	br	8000bd8 <__alt_data_end+0xfc000bd8>
 8001994:	d8c10dc4 	addi	r3,sp,1079
 8001998:	a808d0fa 	srli	r4,r21,3
 800199c:	b00a977a 	slli	r5,r22,29
 80019a0:	b02cd0fa 	srli	r22,r22,3
 80019a4:	ad4001cc 	andi	r21,r21,7
 80019a8:	a8800c04 	addi	r2,r21,48
 80019ac:	292ab03a 	or	r21,r5,r4
 80019b0:	18800005 	stb	r2,0(r3)
 80019b4:	ad88b03a 	or	r4,r21,r22
 80019b8:	1821883a 	mov	r16,r3
 80019bc:	18ffffc4 	addi	r3,r3,-1
 80019c0:	203ff51e 	bne	r4,zero,8001998 <__alt_data_end+0xfc001998>
 80019c4:	d9412a17 	ldw	r5,1192(sp)
 80019c8:	2900004c 	andi	r4,r5,1
 80019cc:	800b883a 	mov	r5,r16
 80019d0:	203f1a26 	beq	r4,zero,800163c <__alt_data_end+0xfc00163c>
 80019d4:	10803fcc 	andi	r2,r2,255
 80019d8:	1080201c 	xori	r2,r2,128
 80019dc:	10bfe004 	addi	r2,r2,-128
 80019e0:	01000c04 	movi	r4,48
 80019e4:	113f1526 	beq	r2,r4,800163c <__alt_data_end+0xfc00163c>
 80019e8:	1821883a 	mov	r16,r3
 80019ec:	d8c12917 	ldw	r3,1188(sp)
 80019f0:	293fffc5 	stb	r4,-1(r5)
 80019f4:	1c07c83a 	sub	r3,r3,r16
 80019f8:	d8c12e15 	stw	r3,1208(sp)
 80019fc:	003cbe06 	br	8000cf8 <__alt_data_end+0xfc000cf8>
 8001a00:	d9012c17 	ldw	r4,1200(sp)
 8001a04:	980b883a 	mov	r5,r19
 8001a08:	d9811e04 	addi	r6,sp,1144
 8001a0c:	8007a700 	call	8007a70 <__sprint_r>
 8001a10:	103c711e 	bne	r2,zero,8000bd8 <__alt_data_end+0xfc000bd8>
 8001a14:	d8c12017 	ldw	r3,1152(sp)
 8001a18:	da000404 	addi	r8,sp,16
 8001a1c:	003d5306 	br	8000f6c <__alt_data_end+0xfc000f6c>
 8001a20:	d9012c17 	ldw	r4,1200(sp)
 8001a24:	980b883a 	mov	r5,r19
 8001a28:	d9811e04 	addi	r6,sp,1144
 8001a2c:	8007a700 	call	8007a70 <__sprint_r>
 8001a30:	103c691e 	bne	r2,zero,8000bd8 <__alt_data_end+0xfc000bd8>
 8001a34:	d8c12017 	ldw	r3,1152(sp)
 8001a38:	da000404 	addi	r8,sp,16
 8001a3c:	003d0a06 	br	8000e68 <__alt_data_end+0xfc000e68>
 8001a40:	d9012c17 	ldw	r4,1200(sp)
 8001a44:	980b883a 	mov	r5,r19
 8001a48:	d9811e04 	addi	r6,sp,1144
 8001a4c:	8007a700 	call	8007a70 <__sprint_r>
 8001a50:	103c611e 	bne	r2,zero,8000bd8 <__alt_data_end+0xfc000bd8>
 8001a54:	d8c12017 	ldw	r3,1152(sp)
 8001a58:	da000404 	addi	r8,sp,16
 8001a5c:	003d1006 	br	8000ea0 <__alt_data_end+0xfc000ea0>
 8001a60:	b000021e 	bne	r22,zero,8001a6c <___vfprintf_internal_r+0x1304>
 8001a64:	00800244 	movi	r2,9
 8001a68:	15401c2e 	bgeu	r2,r21,8001adc <___vfprintf_internal_r+0x1374>
 8001a6c:	dc412b15 	stw	r17,1196(sp)
 8001a70:	d8810dc4 	addi	r2,sp,1079
 8001a74:	b023883a 	mov	r17,r22
 8001a78:	402d883a 	mov	r22,r8
 8001a7c:	a809883a 	mov	r4,r21
 8001a80:	880b883a 	mov	r5,r17
 8001a84:	01800284 	movi	r6,10
 8001a88:	000f883a 	mov	r7,zero
 8001a8c:	1021883a 	mov	r16,r2
 8001a90:	8009f680 	call	8009f68 <__umoddi3>
 8001a94:	10800c04 	addi	r2,r2,48
 8001a98:	a809883a 	mov	r4,r21
 8001a9c:	880b883a 	mov	r5,r17
 8001aa0:	80800005 	stb	r2,0(r16)
 8001aa4:	01800284 	movi	r6,10
 8001aa8:	000f883a 	mov	r7,zero
 8001aac:	80099140 	call	8009914 <__udivdi3>
 8001ab0:	1823883a 	mov	r17,r3
 8001ab4:	10c6b03a 	or	r3,r2,r3
 8001ab8:	102b883a 	mov	r21,r2
 8001abc:	80bfffc4 	addi	r2,r16,-1
 8001ac0:	183fee1e 	bne	r3,zero,8001a7c <__alt_data_end+0xfc001a7c>
 8001ac4:	d8c12917 	ldw	r3,1188(sp)
 8001ac8:	b011883a 	mov	r8,r22
 8001acc:	dc412b17 	ldw	r17,1196(sp)
 8001ad0:	1c07c83a 	sub	r3,r3,r16
 8001ad4:	d8c12e15 	stw	r3,1208(sp)
 8001ad8:	003c8706 	br	8000cf8 <__alt_data_end+0xfc000cf8>
 8001adc:	d9013d17 	ldw	r4,1268(sp)
 8001ae0:	ad400c04 	addi	r21,r21,48
 8001ae4:	dd410dc5 	stb	r21,1079(sp)
 8001ae8:	d9012e15 	stw	r4,1208(sp)
 8001aec:	dc010dc4 	addi	r16,sp,1079
 8001af0:	003c8106 	br	8000cf8 <__alt_data_end+0xfc000cf8>
 8001af4:	d8012e15 	stw	zero,1208(sp)
 8001af8:	dc010e04 	addi	r16,sp,1080
 8001afc:	003c7e06 	br	8000cf8 <__alt_data_end+0xfc000cf8>
 8001b00:	d8812617 	ldw	r2,1176(sp)
 8001b04:	0081940e 	bge	zero,r2,8002158 <___vfprintf_internal_r+0x19f0>
 8001b08:	d9413517 	ldw	r5,1236(sp)
 8001b0c:	d8813317 	ldw	r2,1228(sp)
 8001b10:	8165883a 	add	r18,r16,r5
 8001b14:	9429c83a 	sub	r20,r18,r16
 8001b18:	1500010e 	bge	r2,r20,8001b20 <___vfprintf_internal_r+0x13b8>
 8001b1c:	1029883a 	mov	r20,r2
 8001b20:	05000a0e 	bge	zero,r20,8001b4c <___vfprintf_internal_r+0x13e4>
 8001b24:	d8811f17 	ldw	r2,1148(sp)
 8001b28:	1d07883a 	add	r3,r3,r20
 8001b2c:	44000015 	stw	r16,0(r8)
 8001b30:	10800044 	addi	r2,r2,1
 8001b34:	45000115 	stw	r20,4(r8)
 8001b38:	d8c12015 	stw	r3,1152(sp)
 8001b3c:	d8811f15 	stw	r2,1148(sp)
 8001b40:	010001c4 	movi	r4,7
 8001b44:	20822b16 	blt	r4,r2,80023f4 <___vfprintf_internal_r+0x1c8c>
 8001b48:	42000204 	addi	r8,r8,8
 8001b4c:	a0022716 	blt	r20,zero,80023ec <___vfprintf_internal_r+0x1c84>
 8001b50:	d9013317 	ldw	r4,1228(sp)
 8001b54:	2529c83a 	sub	r20,r4,r20
 8001b58:	0500530e 	bge	zero,r20,8001ca8 <___vfprintf_internal_r+0x1540>
 8001b5c:	05800404 	movi	r22,16
 8001b60:	d8811f17 	ldw	r2,1148(sp)
 8001b64:	05420074 	movhi	r21,2049
 8001b68:	ad7edb84 	addi	r21,r21,-1170
 8001b6c:	b501680e 	bge	r22,r20,8002110 <___vfprintf_internal_r+0x19a8>
 8001b70:	8809883a 	mov	r4,r17
 8001b74:	dc012e15 	stw	r16,1208(sp)
 8001b78:	a023883a 	mov	r17,r20
 8001b7c:	070001c4 	movi	fp,7
 8001b80:	dc012c17 	ldw	r16,1200(sp)
 8001b84:	2029883a 	mov	r20,r4
 8001b88:	00000306 	br	8001b98 <___vfprintf_internal_r+0x1430>
 8001b8c:	42000204 	addi	r8,r8,8
 8001b90:	8c7ffc04 	addi	r17,r17,-16
 8001b94:	b4415a0e 	bge	r22,r17,8002100 <___vfprintf_internal_r+0x1998>
 8001b98:	18c00404 	addi	r3,r3,16
 8001b9c:	10800044 	addi	r2,r2,1
 8001ba0:	45c00015 	stw	r23,0(r8)
 8001ba4:	45800115 	stw	r22,4(r8)
 8001ba8:	d8c12015 	stw	r3,1152(sp)
 8001bac:	d8811f15 	stw	r2,1148(sp)
 8001bb0:	e0bff60e 	bge	fp,r2,8001b8c <__alt_data_end+0xfc001b8c>
 8001bb4:	8009883a 	mov	r4,r16
 8001bb8:	980b883a 	mov	r5,r19
 8001bbc:	d9811e04 	addi	r6,sp,1144
 8001bc0:	8007a700 	call	8007a70 <__sprint_r>
 8001bc4:	103c041e 	bne	r2,zero,8000bd8 <__alt_data_end+0xfc000bd8>
 8001bc8:	d8c12017 	ldw	r3,1152(sp)
 8001bcc:	d8811f17 	ldw	r2,1148(sp)
 8001bd0:	da000404 	addi	r8,sp,16
 8001bd4:	003fee06 	br	8001b90 <__alt_data_end+0xfc001b90>
 8001bd8:	d9012c17 	ldw	r4,1200(sp)
 8001bdc:	980b883a 	mov	r5,r19
 8001be0:	d9811e04 	addi	r6,sp,1144
 8001be4:	8007a700 	call	8007a70 <__sprint_r>
 8001be8:	103bfb1e 	bne	r2,zero,8000bd8 <__alt_data_end+0xfc000bd8>
 8001bec:	d8c12017 	ldw	r3,1152(sp)
 8001bf0:	d8812787 	ldb	r2,1182(sp)
 8001bf4:	da000404 	addi	r8,sp,16
 8001bf8:	003c8e06 	br	8000e34 <__alt_data_end+0xfc000e34>
 8001bfc:	d9413517 	ldw	r5,1236(sp)
 8001c00:	2c3fffc4 	addi	r16,r5,-1
 8001c04:	043f3c0e 	bge	zero,r16,80018f8 <__alt_data_end+0xfc0018f8>
 8001c08:	07000404 	movi	fp,16
 8001c0c:	05420074 	movhi	r21,2049
 8001c10:	ad7edb84 	addi	r21,r21,-1170
 8001c14:	e4007c0e 	bge	fp,r16,8001e08 <___vfprintf_internal_r+0x16a0>
 8001c18:	dc412e15 	stw	r17,1208(sp)
 8001c1c:	00c001c4 	movi	r3,7
 8001c20:	8023883a 	mov	r17,r16
 8001c24:	dc012c17 	ldw	r16,1200(sp)
 8001c28:	00000306 	br	8001c38 <___vfprintf_internal_r+0x14d0>
 8001c2c:	a5000204 	addi	r20,r20,8
 8001c30:	8c7ffc04 	addi	r17,r17,-16
 8001c34:	e440720e 	bge	fp,r17,8001e00 <___vfprintf_internal_r+0x1698>
 8001c38:	b5800404 	addi	r22,r22,16
 8001c3c:	94800044 	addi	r18,r18,1
 8001c40:	a5c00015 	stw	r23,0(r20)
 8001c44:	a7000115 	stw	fp,4(r20)
 8001c48:	dd812015 	stw	r22,1152(sp)
 8001c4c:	dc811f15 	stw	r18,1148(sp)
 8001c50:	1cbff60e 	bge	r3,r18,8001c2c <__alt_data_end+0xfc001c2c>
 8001c54:	8009883a 	mov	r4,r16
 8001c58:	980b883a 	mov	r5,r19
 8001c5c:	d9811e04 	addi	r6,sp,1144
 8001c60:	d8c13e15 	stw	r3,1272(sp)
 8001c64:	8007a700 	call	8007a70 <__sprint_r>
 8001c68:	d8c13e17 	ldw	r3,1272(sp)
 8001c6c:	103bda1e 	bne	r2,zero,8000bd8 <__alt_data_end+0xfc000bd8>
 8001c70:	dd812017 	ldw	r22,1152(sp)
 8001c74:	dc811f17 	ldw	r18,1148(sp)
 8001c78:	dd000404 	addi	r20,sp,16
 8001c7c:	003fec06 	br	8001c30 <__alt_data_end+0xfc001c30>
 8001c80:	00c00084 	movi	r3,2
 8001c84:	ad84b03a 	or	r2,r21,r22
 8001c88:	003d5c06 	br	80011fc <__alt_data_end+0xfc0011fc>
 8001c8c:	d9012c17 	ldw	r4,1200(sp)
 8001c90:	980b883a 	mov	r5,r19
 8001c94:	d9811e04 	addi	r6,sp,1144
 8001c98:	8007a700 	call	8007a70 <__sprint_r>
 8001c9c:	103bce1e 	bne	r2,zero,8000bd8 <__alt_data_end+0xfc000bd8>
 8001ca0:	d8c12017 	ldw	r3,1152(sp)
 8001ca4:	da000404 	addi	r8,sp,16
 8001ca8:	d9413317 	ldw	r5,1228(sp)
 8001cac:	d8812617 	ldw	r2,1176(sp)
 8001cb0:	d9013517 	ldw	r4,1236(sp)
 8001cb4:	8161883a 	add	r16,r16,r5
 8001cb8:	11000316 	blt	r2,r4,8001cc8 <___vfprintf_internal_r+0x1560>
 8001cbc:	d9412a17 	ldw	r5,1192(sp)
 8001cc0:	2900004c 	andi	r4,r5,1
 8001cc4:	20000d26 	beq	r4,zero,8001cfc <___vfprintf_internal_r+0x1594>
 8001cc8:	d9013817 	ldw	r4,1248(sp)
 8001ccc:	d9413417 	ldw	r5,1232(sp)
 8001cd0:	1907883a 	add	r3,r3,r4
 8001cd4:	d9011f17 	ldw	r4,1148(sp)
 8001cd8:	41400015 	stw	r5,0(r8)
 8001cdc:	d9413817 	ldw	r5,1248(sp)
 8001ce0:	21000044 	addi	r4,r4,1
 8001ce4:	d8c12015 	stw	r3,1152(sp)
 8001ce8:	41400115 	stw	r5,4(r8)
 8001cec:	d9011f15 	stw	r4,1148(sp)
 8001cf0:	014001c4 	movi	r5,7
 8001cf4:	2901c716 	blt	r5,r4,8002414 <___vfprintf_internal_r+0x1cac>
 8001cf8:	42000204 	addi	r8,r8,8
 8001cfc:	d9013517 	ldw	r4,1236(sp)
 8001d00:	9425c83a 	sub	r18,r18,r16
 8001d04:	2085c83a 	sub	r2,r4,r2
 8001d08:	1029883a 	mov	r20,r2
 8001d0c:	9080010e 	bge	r18,r2,8001d14 <___vfprintf_internal_r+0x15ac>
 8001d10:	9029883a 	mov	r20,r18
 8001d14:	05000a0e 	bge	zero,r20,8001d40 <___vfprintf_internal_r+0x15d8>
 8001d18:	d9011f17 	ldw	r4,1148(sp)
 8001d1c:	1d07883a 	add	r3,r3,r20
 8001d20:	44000015 	stw	r16,0(r8)
 8001d24:	21000044 	addi	r4,r4,1
 8001d28:	45000115 	stw	r20,4(r8)
 8001d2c:	d8c12015 	stw	r3,1152(sp)
 8001d30:	d9011f15 	stw	r4,1148(sp)
 8001d34:	014001c4 	movi	r5,7
 8001d38:	2901dd16 	blt	r5,r4,80024b0 <___vfprintf_internal_r+0x1d48>
 8001d3c:	42000204 	addi	r8,r8,8
 8001d40:	a001d916 	blt	r20,zero,80024a8 <___vfprintf_internal_r+0x1d40>
 8001d44:	1521c83a 	sub	r16,r2,r20
 8001d48:	043c970e 	bge	zero,r16,8000fa8 <__alt_data_end+0xfc000fa8>
 8001d4c:	04800404 	movi	r18,16
 8001d50:	d8811f17 	ldw	r2,1148(sp)
 8001d54:	05420074 	movhi	r21,2049
 8001d58:	ad7edb84 	addi	r21,r21,-1170
 8001d5c:	943e140e 	bge	r18,r16,80015b0 <__alt_data_end+0xfc0015b0>
 8001d60:	050001c4 	movi	r20,7
 8001d64:	dd812c17 	ldw	r22,1200(sp)
 8001d68:	00000306 	br	8001d78 <___vfprintf_internal_r+0x1610>
 8001d6c:	42000204 	addi	r8,r8,8
 8001d70:	843ffc04 	addi	r16,r16,-16
 8001d74:	943e0e0e 	bge	r18,r16,80015b0 <__alt_data_end+0xfc0015b0>
 8001d78:	18c00404 	addi	r3,r3,16
 8001d7c:	10800044 	addi	r2,r2,1
 8001d80:	45c00015 	stw	r23,0(r8)
 8001d84:	44800115 	stw	r18,4(r8)
 8001d88:	d8c12015 	stw	r3,1152(sp)
 8001d8c:	d8811f15 	stw	r2,1148(sp)
 8001d90:	a0bff60e 	bge	r20,r2,8001d6c <__alt_data_end+0xfc001d6c>
 8001d94:	b009883a 	mov	r4,r22
 8001d98:	980b883a 	mov	r5,r19
 8001d9c:	d9811e04 	addi	r6,sp,1144
 8001da0:	8007a700 	call	8007a70 <__sprint_r>
 8001da4:	103b8c1e 	bne	r2,zero,8000bd8 <__alt_data_end+0xfc000bd8>
 8001da8:	d8c12017 	ldw	r3,1152(sp)
 8001dac:	d8811f17 	ldw	r2,1148(sp)
 8001db0:	da000404 	addi	r8,sp,16
 8001db4:	003fee06 	br	8001d70 <__alt_data_end+0xfc001d70>
 8001db8:	d9012c17 	ldw	r4,1200(sp)
 8001dbc:	980b883a 	mov	r5,r19
 8001dc0:	d9811e04 	addi	r6,sp,1144
 8001dc4:	8007a700 	call	8007a70 <__sprint_r>
 8001dc8:	103b831e 	bne	r2,zero,8000bd8 <__alt_data_end+0xfc000bd8>
 8001dcc:	d8c12017 	ldw	r3,1152(sp)
 8001dd0:	dc811f17 	ldw	r18,1148(sp)
 8001dd4:	da000404 	addi	r8,sp,16
 8001dd8:	003eaa06 	br	8001884 <__alt_data_end+0xfc001884>
 8001ddc:	d9012c17 	ldw	r4,1200(sp)
 8001de0:	980b883a 	mov	r5,r19
 8001de4:	d9811e04 	addi	r6,sp,1144
 8001de8:	8007a700 	call	8007a70 <__sprint_r>
 8001dec:	103b7a1e 	bne	r2,zero,8000bd8 <__alt_data_end+0xfc000bd8>
 8001df0:	dd812017 	ldw	r22,1152(sp)
 8001df4:	dc811f17 	ldw	r18,1148(sp)
 8001df8:	dd000404 	addi	r20,sp,16
 8001dfc:	003eac06 	br	80018b0 <__alt_data_end+0xfc0018b0>
 8001e00:	8821883a 	mov	r16,r17
 8001e04:	dc412e17 	ldw	r17,1208(sp)
 8001e08:	b42d883a 	add	r22,r22,r16
 8001e0c:	94800044 	addi	r18,r18,1
 8001e10:	a5400015 	stw	r21,0(r20)
 8001e14:	a4000115 	stw	r16,4(r20)
 8001e18:	dd812015 	stw	r22,1152(sp)
 8001e1c:	dc811f15 	stw	r18,1148(sp)
 8001e20:	008001c4 	movi	r2,7
 8001e24:	14beb30e 	bge	r2,r18,80018f4 <__alt_data_end+0xfc0018f4>
 8001e28:	003ecb06 	br	8001958 <__alt_data_end+0xfc001958>
 8001e2c:	d9012c17 	ldw	r4,1200(sp)
 8001e30:	980b883a 	mov	r5,r19
 8001e34:	d9811e04 	addi	r6,sp,1144
 8001e38:	8007a700 	call	8007a70 <__sprint_r>
 8001e3c:	103b661e 	bne	r2,zero,8000bd8 <__alt_data_end+0xfc000bd8>
 8001e40:	d8c12017 	ldw	r3,1152(sp)
 8001e44:	da000404 	addi	r8,sp,16
 8001e48:	003c1806 	br	8000eac <__alt_data_end+0xfc000eac>
 8001e4c:	056bc83a 	sub	r21,zero,r21
 8001e50:	a804c03a 	cmpne	r2,r21,zero
 8001e54:	05adc83a 	sub	r22,zero,r22
 8001e58:	07000b44 	movi	fp,45
 8001e5c:	b0adc83a 	sub	r22,r22,r2
 8001e60:	df012785 	stb	fp,1182(sp)
 8001e64:	00c00044 	movi	r3,1
 8001e68:	ad84b03a 	or	r2,r21,r22
 8001e6c:	003b9106 	br	8000cb4 <__alt_data_end+0xfc000cb4>
 8001e70:	da013f15 	stw	r8,1276(sp)
 8001e74:	80076c80 	call	80076c8 <__fpclassifyd>
 8001e78:	da013f17 	ldw	r8,1276(sp)
 8001e7c:	1000f226 	beq	r2,zero,8002248 <___vfprintf_internal_r+0x1ae0>
 8001e80:	05bff7c4 	movi	r22,-33
 8001e84:	00bfffc4 	movi	r2,-1
 8001e88:	95ac703a 	and	r22,r18,r22
 8001e8c:	a0820b26 	beq	r20,r2,80026bc <___vfprintf_internal_r+0x1f54>
 8001e90:	008011c4 	movi	r2,71
 8001e94:	b081fc26 	beq	r22,r2,8002688 <___vfprintf_internal_r+0x1f20>
 8001e98:	d8c12a17 	ldw	r3,1192(sp)
 8001e9c:	d9013917 	ldw	r4,1252(sp)
 8001ea0:	18c04014 	ori	r3,r3,256
 8001ea4:	d8c12d15 	stw	r3,1204(sp)
 8001ea8:	20020616 	blt	r4,zero,80026c4 <___vfprintf_internal_r+0x1f5c>
 8001eac:	dd413917 	ldw	r21,1252(sp)
 8001eb0:	d8012b05 	stb	zero,1196(sp)
 8001eb4:	00801984 	movi	r2,102
 8001eb8:	9081a526 	beq	r18,r2,8002550 <___vfprintf_internal_r+0x1de8>
 8001ebc:	00801184 	movi	r2,70
 8001ec0:	9081a326 	beq	r18,r2,8002550 <___vfprintf_internal_r+0x1de8>
 8001ec4:	00801144 	movi	r2,69
 8001ec8:	b0820226 	beq	r22,r2,80026d4 <___vfprintf_internal_r+0x1f6c>
 8001ecc:	a039883a 	mov	fp,r20
 8001ed0:	d8812604 	addi	r2,sp,1176
 8001ed4:	d8800115 	stw	r2,4(sp)
 8001ed8:	d9012c17 	ldw	r4,1200(sp)
 8001edc:	d8812504 	addi	r2,sp,1172
 8001ee0:	d9413717 	ldw	r5,1244(sp)
 8001ee4:	d8800215 	stw	r2,8(sp)
 8001ee8:	d8812104 	addi	r2,sp,1156
 8001eec:	df000015 	stw	fp,0(sp)
 8001ef0:	d8800315 	stw	r2,12(sp)
 8001ef4:	a80d883a 	mov	r6,r21
 8001ef8:	01c00084 	movi	r7,2
 8001efc:	da013f15 	stw	r8,1276(sp)
 8001f00:	8002c400 	call	8002c40 <_dtoa_r>
 8001f04:	1021883a 	mov	r16,r2
 8001f08:	008019c4 	movi	r2,103
 8001f0c:	da013f17 	ldw	r8,1276(sp)
 8001f10:	90800226 	beq	r18,r2,8001f1c <___vfprintf_internal_r+0x17b4>
 8001f14:	008011c4 	movi	r2,71
 8001f18:	9080031e 	bne	r18,r2,8001f28 <___vfprintf_internal_r+0x17c0>
 8001f1c:	d9012a17 	ldw	r4,1192(sp)
 8001f20:	2080004c 	andi	r2,r4,1
 8001f24:	1001fe26 	beq	r2,zero,8002720 <___vfprintf_internal_r+0x1fb8>
 8001f28:	00801184 	movi	r2,70
 8001f2c:	8713883a 	add	r9,r16,fp
 8001f30:	b0819f26 	beq	r22,r2,80025b0 <___vfprintf_internal_r+0x1e48>
 8001f34:	d9013717 	ldw	r4,1244(sp)
 8001f38:	a80b883a 	mov	r5,r21
 8001f3c:	000d883a 	mov	r6,zero
 8001f40:	000f883a 	mov	r7,zero
 8001f44:	da013f15 	stw	r8,1276(sp)
 8001f48:	da413e15 	stw	r9,1272(sp)
 8001f4c:	800b8f00 	call	800b8f0 <__eqdf2>
 8001f50:	da013f17 	ldw	r8,1276(sp)
 8001f54:	da413e17 	ldw	r9,1272(sp)
 8001f58:	10017b26 	beq	r2,zero,8002548 <___vfprintf_internal_r+0x1de0>
 8001f5c:	d8812117 	ldw	r2,1156(sp)
 8001f60:	1240062e 	bgeu	r2,r9,8001f7c <___vfprintf_internal_r+0x1814>
 8001f64:	01000c04 	movi	r4,48
 8001f68:	10c00044 	addi	r3,r2,1
 8001f6c:	d8c12115 	stw	r3,1156(sp)
 8001f70:	11000005 	stb	r4,0(r2)
 8001f74:	d8812117 	ldw	r2,1156(sp)
 8001f78:	127ffb36 	bltu	r2,r9,8001f68 <__alt_data_end+0xfc001f68>
 8001f7c:	1405c83a 	sub	r2,r2,r16
 8001f80:	d8813515 	stw	r2,1236(sp)
 8001f84:	008011c4 	movi	r2,71
 8001f88:	b0816926 	beq	r22,r2,8002530 <___vfprintf_internal_r+0x1dc8>
 8001f8c:	00801944 	movi	r2,101
 8001f90:	14823f0e 	bge	r2,r18,8002890 <___vfprintf_internal_r+0x2128>
 8001f94:	d8c12617 	ldw	r3,1176(sp)
 8001f98:	00801984 	movi	r2,102
 8001f9c:	d8c13315 	stw	r3,1228(sp)
 8001fa0:	9081e126 	beq	r18,r2,8002728 <___vfprintf_internal_r+0x1fc0>
 8001fa4:	d8c13317 	ldw	r3,1228(sp)
 8001fa8:	d9013517 	ldw	r4,1236(sp)
 8001fac:	1901cb16 	blt	r3,r4,80026dc <___vfprintf_internal_r+0x1f74>
 8001fb0:	d9412a17 	ldw	r5,1192(sp)
 8001fb4:	2880004c 	andi	r2,r5,1
 8001fb8:	1001d11e 	bne	r2,zero,8002700 <___vfprintf_internal_r+0x1f98>
 8001fbc:	1805883a 	mov	r2,r3
 8001fc0:	18023116 	blt	r3,zero,8002888 <___vfprintf_internal_r+0x2120>
 8001fc4:	d8c13317 	ldw	r3,1228(sp)
 8001fc8:	048019c4 	movi	r18,103
 8001fcc:	d8c12e15 	stw	r3,1208(sp)
 8001fd0:	df012b07 	ldb	fp,1196(sp)
 8001fd4:	e0014e1e 	bne	fp,zero,8002510 <___vfprintf_internal_r+0x1da8>
 8001fd8:	d8c12d17 	ldw	r3,1204(sp)
 8001fdc:	df012783 	ldbu	fp,1182(sp)
 8001fe0:	d8812b15 	stw	r2,1196(sp)
 8001fe4:	d8c12a15 	stw	r3,1192(sp)
 8001fe8:	0029883a 	mov	r20,zero
 8001fec:	003b4706 	br	8000d0c <__alt_data_end+0xfc000d0c>
 8001ff0:	d8c12f17 	ldw	r3,1212(sp)
 8001ff4:	d9012f17 	ldw	r4,1212(sp)
 8001ff8:	d9412f17 	ldw	r5,1212(sp)
 8001ffc:	18c00017 	ldw	r3,0(r3)
 8002000:	21000117 	ldw	r4,4(r4)
 8002004:	29400204 	addi	r5,r5,8
 8002008:	d8c13715 	stw	r3,1244(sp)
 800200c:	d9013915 	stw	r4,1252(sp)
 8002010:	d9412f15 	stw	r5,1212(sp)
 8002014:	003c3606 	br	80010f0 <__alt_data_end+0xfc0010f0>
 8002018:	d9412a17 	ldw	r5,1192(sp)
 800201c:	2880100c 	andi	r2,r5,64
 8002020:	1000b026 	beq	r2,zero,80022e4 <___vfprintf_internal_r+0x1b7c>
 8002024:	d8812f17 	ldw	r2,1212(sp)
 8002028:	002d883a 	mov	r22,zero
 800202c:	00c00044 	movi	r3,1
 8002030:	1540000b 	ldhu	r21,0(r2)
 8002034:	10800104 	addi	r2,r2,4
 8002038:	d8812f15 	stw	r2,1212(sp)
 800203c:	a805883a 	mov	r2,r21
 8002040:	003c6e06 	br	80011fc <__alt_data_end+0xfc0011fc>
 8002044:	00c00084 	movi	r3,2
 8002048:	003c6c06 	br	80011fc <__alt_data_end+0xfc0011fc>
 800204c:	d9412a17 	ldw	r5,1192(sp)
 8002050:	2880100c 	andi	r2,r5,64
 8002054:	10009b26 	beq	r2,zero,80022c4 <___vfprintf_internal_r+0x1b5c>
 8002058:	d8812f17 	ldw	r2,1212(sp)
 800205c:	002d883a 	mov	r22,zero
 8002060:	0007883a 	mov	r3,zero
 8002064:	1540000b 	ldhu	r21,0(r2)
 8002068:	10800104 	addi	r2,r2,4
 800206c:	d8812f15 	stw	r2,1212(sp)
 8002070:	a805883a 	mov	r2,r21
 8002074:	003c6106 	br	80011fc <__alt_data_end+0xfc0011fc>
 8002078:	8c800007 	ldb	r18,0(r17)
 800207c:	003a1f06 	br	80008fc <__alt_data_end+0xfc0008fc>
 8002080:	d9412a17 	ldw	r5,1192(sp)
 8002084:	2880100c 	andi	r2,r5,64
 8002088:	10009e26 	beq	r2,zero,8002304 <___vfprintf_internal_r+0x1b9c>
 800208c:	d8812f17 	ldw	r2,1212(sp)
 8002090:	002d883a 	mov	r22,zero
 8002094:	1540000b 	ldhu	r21,0(r2)
 8002098:	10800104 	addi	r2,r2,4
 800209c:	d8812f15 	stw	r2,1212(sp)
 80020a0:	003c9506 	br	80012f8 <__alt_data_end+0xfc0012f8>
 80020a4:	d9412a17 	ldw	r5,1192(sp)
 80020a8:	2880040c 	andi	r2,r5,16
 80020ac:	10007e1e 	bne	r2,zero,80022a8 <___vfprintf_internal_r+0x1b40>
 80020b0:	d9412a17 	ldw	r5,1192(sp)
 80020b4:	2880100c 	andi	r2,r5,64
 80020b8:	10010826 	beq	r2,zero,80024dc <___vfprintf_internal_r+0x1d74>
 80020bc:	d8c12f17 	ldw	r3,1212(sp)
 80020c0:	d9013117 	ldw	r4,1220(sp)
 80020c4:	18800017 	ldw	r2,0(r3)
 80020c8:	18c00104 	addi	r3,r3,4
 80020cc:	d8c12f15 	stw	r3,1212(sp)
 80020d0:	1100000d 	sth	r4,0(r2)
 80020d4:	0039e206 	br	8000860 <__alt_data_end+0xfc000860>
 80020d8:	d8c12a17 	ldw	r3,1192(sp)
 80020dc:	1880100c 	andi	r2,r3,64
 80020e0:	10006a26 	beq	r2,zero,800228c <___vfprintf_internal_r+0x1b24>
 80020e4:	d9012f17 	ldw	r4,1212(sp)
 80020e8:	2540000f 	ldh	r21,0(r4)
 80020ec:	21000104 	addi	r4,r4,4
 80020f0:	d9012f15 	stw	r4,1212(sp)
 80020f4:	a82dd7fa 	srai	r22,r21,31
 80020f8:	b005883a 	mov	r2,r22
 80020fc:	003ae906 	br	8000ca4 <__alt_data_end+0xfc000ca4>
 8002100:	dc012e17 	ldw	r16,1208(sp)
 8002104:	a009883a 	mov	r4,r20
 8002108:	8829883a 	mov	r20,r17
 800210c:	2023883a 	mov	r17,r4
 8002110:	1d07883a 	add	r3,r3,r20
 8002114:	10800044 	addi	r2,r2,1
 8002118:	45400015 	stw	r21,0(r8)
 800211c:	45000115 	stw	r20,4(r8)
 8002120:	d8c12015 	stw	r3,1152(sp)
 8002124:	d8811f15 	stw	r2,1148(sp)
 8002128:	010001c4 	movi	r4,7
 800212c:	20bed716 	blt	r4,r2,8001c8c <__alt_data_end+0xfc001c8c>
 8002130:	42000204 	addi	r8,r8,8
 8002134:	003edc06 	br	8001ca8 <__alt_data_end+0xfc001ca8>
 8002138:	d9012c17 	ldw	r4,1200(sp)
 800213c:	980b883a 	mov	r5,r19
 8002140:	d9811e04 	addi	r6,sp,1144
 8002144:	8007a700 	call	8007a70 <__sprint_r>
 8002148:	103aa31e 	bne	r2,zero,8000bd8 <__alt_data_end+0xfc000bd8>
 800214c:	d8c12017 	ldw	r3,1152(sp)
 8002150:	da000404 	addi	r8,sp,16
 8002154:	003d5606 	br	80016b0 <__alt_data_end+0xfc0016b0>
 8002158:	d9011f17 	ldw	r4,1148(sp)
 800215c:	01420074 	movhi	r5,2049
 8002160:	297edb04 	addi	r5,r5,-1172
 8002164:	18c00044 	addi	r3,r3,1
 8002168:	21000044 	addi	r4,r4,1
 800216c:	41400015 	stw	r5,0(r8)
 8002170:	01400044 	movi	r5,1
 8002174:	41400115 	stw	r5,4(r8)
 8002178:	d8c12015 	stw	r3,1152(sp)
 800217c:	d9011f15 	stw	r4,1148(sp)
 8002180:	014001c4 	movi	r5,7
 8002184:	29006a16 	blt	r5,r4,8002330 <___vfprintf_internal_r+0x1bc8>
 8002188:	42000204 	addi	r8,r8,8
 800218c:	1025883a 	mov	r18,r2
 8002190:	9000051e 	bne	r18,zero,80021a8 <___vfprintf_internal_r+0x1a40>
 8002194:	d8813517 	ldw	r2,1236(sp)
 8002198:	1000031e 	bne	r2,zero,80021a8 <___vfprintf_internal_r+0x1a40>
 800219c:	d9012a17 	ldw	r4,1192(sp)
 80021a0:	2080004c 	andi	r2,r4,1
 80021a4:	103b8026 	beq	r2,zero,8000fa8 <__alt_data_end+0xfc000fa8>
 80021a8:	d8813417 	ldw	r2,1232(sp)
 80021ac:	d9413817 	ldw	r5,1248(sp)
 80021b0:	010001c4 	movi	r4,7
 80021b4:	40800015 	stw	r2,0(r8)
 80021b8:	d8811f17 	ldw	r2,1148(sp)
 80021bc:	1947883a 	add	r3,r3,r5
 80021c0:	41400115 	stw	r5,4(r8)
 80021c4:	10800044 	addi	r2,r2,1
 80021c8:	d8c12015 	stw	r3,1152(sp)
 80021cc:	d8811f15 	stw	r2,1148(sp)
 80021d0:	20813016 	blt	r4,r2,8002694 <___vfprintf_internal_r+0x1f2c>
 80021d4:	42000204 	addi	r8,r8,8
 80021d8:	04a5c83a 	sub	r18,zero,r18
 80021dc:	04807a0e 	bge	zero,r18,80023c8 <___vfprintf_internal_r+0x1c60>
 80021e0:	05000404 	movi	r20,16
 80021e4:	05420074 	movhi	r21,2049
 80021e8:	ad7edb84 	addi	r21,r21,-1170
 80021ec:	a480920e 	bge	r20,r18,8002438 <___vfprintf_internal_r+0x1cd0>
 80021f0:	058001c4 	movi	r22,7
 80021f4:	df012c17 	ldw	fp,1200(sp)
 80021f8:	00000306 	br	8002208 <___vfprintf_internal_r+0x1aa0>
 80021fc:	42000204 	addi	r8,r8,8
 8002200:	94bffc04 	addi	r18,r18,-16
 8002204:	a4808c0e 	bge	r20,r18,8002438 <___vfprintf_internal_r+0x1cd0>
 8002208:	18c00404 	addi	r3,r3,16
 800220c:	10800044 	addi	r2,r2,1
 8002210:	45c00015 	stw	r23,0(r8)
 8002214:	45000115 	stw	r20,4(r8)
 8002218:	d8c12015 	stw	r3,1152(sp)
 800221c:	d8811f15 	stw	r2,1148(sp)
 8002220:	b0bff60e 	bge	r22,r2,80021fc <__alt_data_end+0xfc0021fc>
 8002224:	e009883a 	mov	r4,fp
 8002228:	980b883a 	mov	r5,r19
 800222c:	d9811e04 	addi	r6,sp,1144
 8002230:	8007a700 	call	8007a70 <__sprint_r>
 8002234:	103a681e 	bne	r2,zero,8000bd8 <__alt_data_end+0xfc000bd8>
 8002238:	d8c12017 	ldw	r3,1152(sp)
 800223c:	d8811f17 	ldw	r2,1148(sp)
 8002240:	da000404 	addi	r8,sp,16
 8002244:	003fee06 	br	8002200 <__alt_data_end+0xfc002200>
 8002248:	008011c4 	movi	r2,71
 800224c:	1480ad16 	blt	r2,r18,8002504 <___vfprintf_internal_r+0x1d9c>
 8002250:	04020074 	movhi	r16,2049
 8002254:	843ecd04 	addi	r16,r16,-1228
 8002258:	d9012a17 	ldw	r4,1192(sp)
 800225c:	00bfdfc4 	movi	r2,-129
 8002260:	00c000c4 	movi	r3,3
 8002264:	2088703a 	and	r4,r4,r2
 8002268:	d8c12b15 	stw	r3,1196(sp)
 800226c:	d9012a15 	stw	r4,1192(sp)
 8002270:	df012783 	ldbu	fp,1182(sp)
 8002274:	d8c12e15 	stw	r3,1208(sp)
 8002278:	0029883a 	mov	r20,zero
 800227c:	d8013315 	stw	zero,1228(sp)
 8002280:	003aa206 	br	8000d0c <__alt_data_end+0xfc000d0c>
 8002284:	dd012e15 	stw	r20,1208(sp)
 8002288:	003c8206 	br	8001494 <__alt_data_end+0xfc001494>
 800228c:	d9412f17 	ldw	r5,1212(sp)
 8002290:	2d400017 	ldw	r21,0(r5)
 8002294:	29400104 	addi	r5,r5,4
 8002298:	d9412f15 	stw	r5,1212(sp)
 800229c:	a82dd7fa 	srai	r22,r21,31
 80022a0:	b005883a 	mov	r2,r22
 80022a4:	003a7f06 	br	8000ca4 <__alt_data_end+0xfc000ca4>
 80022a8:	d8c12f17 	ldw	r3,1212(sp)
 80022ac:	d9013117 	ldw	r4,1220(sp)
 80022b0:	18800017 	ldw	r2,0(r3)
 80022b4:	18c00104 	addi	r3,r3,4
 80022b8:	d8c12f15 	stw	r3,1212(sp)
 80022bc:	11000015 	stw	r4,0(r2)
 80022c0:	00396706 	br	8000860 <__alt_data_end+0xfc000860>
 80022c4:	d8c12f17 	ldw	r3,1212(sp)
 80022c8:	002d883a 	mov	r22,zero
 80022cc:	1d400017 	ldw	r21,0(r3)
 80022d0:	18c00104 	addi	r3,r3,4
 80022d4:	d8c12f15 	stw	r3,1212(sp)
 80022d8:	a805883a 	mov	r2,r21
 80022dc:	0007883a 	mov	r3,zero
 80022e0:	003bc606 	br	80011fc <__alt_data_end+0xfc0011fc>
 80022e4:	d8c12f17 	ldw	r3,1212(sp)
 80022e8:	002d883a 	mov	r22,zero
 80022ec:	1d400017 	ldw	r21,0(r3)
 80022f0:	18c00104 	addi	r3,r3,4
 80022f4:	d8c12f15 	stw	r3,1212(sp)
 80022f8:	a805883a 	mov	r2,r21
 80022fc:	00c00044 	movi	r3,1
 8002300:	003bbe06 	br	80011fc <__alt_data_end+0xfc0011fc>
 8002304:	d8c12f17 	ldw	r3,1212(sp)
 8002308:	002d883a 	mov	r22,zero
 800230c:	1d400017 	ldw	r21,0(r3)
 8002310:	18c00104 	addi	r3,r3,4
 8002314:	d8c12f15 	stw	r3,1212(sp)
 8002318:	003bf706 	br	80012f8 <__alt_data_end+0xfc0012f8>
 800231c:	04020074 	movhi	r16,2049
 8002320:	843ecb04 	addi	r16,r16,-1236
 8002324:	003b8506 	br	800113c <__alt_data_end+0xfc00113c>
 8002328:	45000204 	addi	r20,r8,8
 800232c:	003d7206 	br	80018f8 <__alt_data_end+0xfc0018f8>
 8002330:	d9012c17 	ldw	r4,1200(sp)
 8002334:	980b883a 	mov	r5,r19
 8002338:	d9811e04 	addi	r6,sp,1144
 800233c:	8007a700 	call	8007a70 <__sprint_r>
 8002340:	103a251e 	bne	r2,zero,8000bd8 <__alt_data_end+0xfc000bd8>
 8002344:	dc812617 	ldw	r18,1176(sp)
 8002348:	d8c12017 	ldw	r3,1152(sp)
 800234c:	da000404 	addi	r8,sp,16
 8002350:	003f8f06 	br	8002190 <__alt_data_end+0xfc002190>
 8002354:	d9012a17 	ldw	r4,1192(sp)
 8002358:	8c400044 	addi	r17,r17,1
 800235c:	14800047 	ldb	r18,1(r2)
 8002360:	21000814 	ori	r4,r4,32
 8002364:	d9012a15 	stw	r4,1192(sp)
 8002368:	00396406 	br	80008fc <__alt_data_end+0xfc0008fc>
 800236c:	d9012c17 	ldw	r4,1200(sp)
 8002370:	980b883a 	mov	r5,r19
 8002374:	d9811e04 	addi	r6,sp,1144
 8002378:	8007a700 	call	8007a70 <__sprint_r>
 800237c:	103a161e 	bne	r2,zero,8000bd8 <__alt_data_end+0xfc000bd8>
 8002380:	d8c12017 	ldw	r3,1152(sp)
 8002384:	da000404 	addi	r8,sp,16
 8002388:	003cdc06 	br	80016fc <__alt_data_end+0xfc0016fc>
 800238c:	df013f15 	stw	fp,1276(sp)
 8002390:	80006dc0 	call	80006dc <strlen>
 8002394:	d8812e15 	stw	r2,1208(sp)
 8002398:	da013f17 	ldw	r8,1276(sp)
 800239c:	103c3f0e 	bge	r2,zero,800149c <__alt_data_end+0xfc00149c>
 80023a0:	0005883a 	mov	r2,zero
 80023a4:	003c3d06 	br	800149c <__alt_data_end+0xfc00149c>
 80023a8:	d9012c17 	ldw	r4,1200(sp)
 80023ac:	980b883a 	mov	r5,r19
 80023b0:	d9811e04 	addi	r6,sp,1144
 80023b4:	8007a700 	call	8007a70 <__sprint_r>
 80023b8:	103a071e 	bne	r2,zero,8000bd8 <__alt_data_end+0xfc000bd8>
 80023bc:	d8c12017 	ldw	r3,1152(sp)
 80023c0:	d8811f17 	ldw	r2,1148(sp)
 80023c4:	da000404 	addi	r8,sp,16
 80023c8:	d9013517 	ldw	r4,1236(sp)
 80023cc:	10800044 	addi	r2,r2,1
 80023d0:	44000015 	stw	r16,0(r8)
 80023d4:	20c7883a 	add	r3,r4,r3
 80023d8:	003aed06 	br	8000f90 <__alt_data_end+0xfc000f90>
 80023dc:	01020074 	movhi	r4,2049
 80023e0:	213edf84 	addi	r4,r4,-1154
 80023e4:	d9013615 	stw	r4,1240(sp)
 80023e8:	003a8706 	br	8000e08 <__alt_data_end+0xfc000e08>
 80023ec:	0029883a 	mov	r20,zero
 80023f0:	003dd706 	br	8001b50 <__alt_data_end+0xfc001b50>
 80023f4:	d9012c17 	ldw	r4,1200(sp)
 80023f8:	980b883a 	mov	r5,r19
 80023fc:	d9811e04 	addi	r6,sp,1144
 8002400:	8007a700 	call	8007a70 <__sprint_r>
 8002404:	1039f41e 	bne	r2,zero,8000bd8 <__alt_data_end+0xfc000bd8>
 8002408:	d8c12017 	ldw	r3,1152(sp)
 800240c:	da000404 	addi	r8,sp,16
 8002410:	003dce06 	br	8001b4c <__alt_data_end+0xfc001b4c>
 8002414:	d9012c17 	ldw	r4,1200(sp)
 8002418:	980b883a 	mov	r5,r19
 800241c:	d9811e04 	addi	r6,sp,1144
 8002420:	8007a700 	call	8007a70 <__sprint_r>
 8002424:	1039ec1e 	bne	r2,zero,8000bd8 <__alt_data_end+0xfc000bd8>
 8002428:	d8812617 	ldw	r2,1176(sp)
 800242c:	d8c12017 	ldw	r3,1152(sp)
 8002430:	da000404 	addi	r8,sp,16
 8002434:	003e3106 	br	8001cfc <__alt_data_end+0xfc001cfc>
 8002438:	1c87883a 	add	r3,r3,r18
 800243c:	10800044 	addi	r2,r2,1
 8002440:	45400015 	stw	r21,0(r8)
 8002444:	44800115 	stw	r18,4(r8)
 8002448:	d8c12015 	stw	r3,1152(sp)
 800244c:	d8811f15 	stw	r2,1148(sp)
 8002450:	010001c4 	movi	r4,7
 8002454:	20bfd416 	blt	r4,r2,80023a8 <__alt_data_end+0xfc0023a8>
 8002458:	42000204 	addi	r8,r8,8
 800245c:	003fda06 	br	80023c8 <__alt_data_end+0xfc0023c8>
 8002460:	01420074 	movhi	r5,2049
 8002464:	297edf84 	addi	r5,r5,-1154
 8002468:	d9413615 	stw	r5,1240(sp)
 800246c:	003af406 	br	8001040 <__alt_data_end+0xfc001040>
 8002470:	00800184 	movi	r2,6
 8002474:	1500012e 	bgeu	r2,r20,800247c <___vfprintf_internal_r+0x1d14>
 8002478:	1029883a 	mov	r20,r2
 800247c:	dd012e15 	stw	r20,1208(sp)
 8002480:	a005883a 	mov	r2,r20
 8002484:	a000d216 	blt	r20,zero,80027d0 <___vfprintf_internal_r+0x2068>
 8002488:	d8812b15 	stw	r2,1196(sp)
 800248c:	dd412f15 	stw	r21,1212(sp)
 8002490:	0029883a 	mov	r20,zero
 8002494:	d8013315 	stw	zero,1228(sp)
 8002498:	04020074 	movhi	r16,2049
 800249c:	843ed904 	addi	r16,r16,-1180
 80024a0:	0005883a 	mov	r2,zero
 80024a4:	003a2006 	br	8000d28 <__alt_data_end+0xfc000d28>
 80024a8:	0029883a 	mov	r20,zero
 80024ac:	003e2506 	br	8001d44 <__alt_data_end+0xfc001d44>
 80024b0:	d9012c17 	ldw	r4,1200(sp)
 80024b4:	980b883a 	mov	r5,r19
 80024b8:	d9811e04 	addi	r6,sp,1144
 80024bc:	8007a700 	call	8007a70 <__sprint_r>
 80024c0:	1039c51e 	bne	r2,zero,8000bd8 <__alt_data_end+0xfc000bd8>
 80024c4:	d8812617 	ldw	r2,1176(sp)
 80024c8:	d9413517 	ldw	r5,1236(sp)
 80024cc:	d8c12017 	ldw	r3,1152(sp)
 80024d0:	da000404 	addi	r8,sp,16
 80024d4:	2885c83a 	sub	r2,r5,r2
 80024d8:	003e1906 	br	8001d40 <__alt_data_end+0xfc001d40>
 80024dc:	d9412f17 	ldw	r5,1212(sp)
 80024e0:	d8c13117 	ldw	r3,1220(sp)
 80024e4:	28800017 	ldw	r2,0(r5)
 80024e8:	29400104 	addi	r5,r5,4
 80024ec:	d9412f15 	stw	r5,1212(sp)
 80024f0:	10c00015 	stw	r3,0(r2)
 80024f4:	0038da06 	br	8000860 <__alt_data_end+0xfc000860>
 80024f8:	07000b44 	movi	fp,45
 80024fc:	df012785 	stb	fp,1182(sp)
 8002500:	003b0a06 	br	800112c <__alt_data_end+0xfc00112c>
 8002504:	04020074 	movhi	r16,2049
 8002508:	843ece04 	addi	r16,r16,-1224
 800250c:	003f5206 	br	8002258 <__alt_data_end+0xfc002258>
 8002510:	00c00b44 	movi	r3,45
 8002514:	d8c12785 	stb	r3,1182(sp)
 8002518:	d8c12d17 	ldw	r3,1204(sp)
 800251c:	d8812b15 	stw	r2,1196(sp)
 8002520:	0029883a 	mov	r20,zero
 8002524:	d8c12a15 	stw	r3,1192(sp)
 8002528:	00800b44 	movi	r2,45
 800252c:	0039fb06 	br	8000d1c <__alt_data_end+0xfc000d1c>
 8002530:	d8812617 	ldw	r2,1176(sp)
 8002534:	00ffff44 	movi	r3,-3
 8002538:	10c03216 	blt	r2,r3,8002604 <___vfprintf_internal_r+0x1e9c>
 800253c:	a0803116 	blt	r20,r2,8002604 <___vfprintf_internal_r+0x1e9c>
 8002540:	d8813315 	stw	r2,1228(sp)
 8002544:	003e9706 	br	8001fa4 <__alt_data_end+0xfc001fa4>
 8002548:	4805883a 	mov	r2,r9
 800254c:	003e8b06 	br	8001f7c <__alt_data_end+0xfc001f7c>
 8002550:	d8812604 	addi	r2,sp,1176
 8002554:	d8800115 	stw	r2,4(sp)
 8002558:	d9012c17 	ldw	r4,1200(sp)
 800255c:	d8812504 	addi	r2,sp,1172
 8002560:	d9413717 	ldw	r5,1244(sp)
 8002564:	d8800215 	stw	r2,8(sp)
 8002568:	d8812104 	addi	r2,sp,1156
 800256c:	dd000015 	stw	r20,0(sp)
 8002570:	d8800315 	stw	r2,12(sp)
 8002574:	a80d883a 	mov	r6,r21
 8002578:	01c000c4 	movi	r7,3
 800257c:	da013f15 	stw	r8,1276(sp)
 8002580:	8002c400 	call	8002c40 <_dtoa_r>
 8002584:	1021883a 	mov	r16,r2
 8002588:	a039883a 	mov	fp,r20
 800258c:	da013f17 	ldw	r8,1276(sp)
 8002590:	003e6506 	br	8001f28 <__alt_data_end+0xfc001f28>
 8002594:	dd012b15 	stw	r20,1196(sp)
 8002598:	dd012e15 	stw	r20,1208(sp)
 800259c:	df012783 	ldbu	fp,1182(sp)
 80025a0:	dd412f15 	stw	r21,1212(sp)
 80025a4:	0029883a 	mov	r20,zero
 80025a8:	d8013315 	stw	zero,1228(sp)
 80025ac:	0039d706 	br	8000d0c <__alt_data_end+0xfc000d0c>
 80025b0:	81000007 	ldb	r4,0(r16)
 80025b4:	00800c04 	movi	r2,48
 80025b8:	20800326 	beq	r4,r2,80025c8 <___vfprintf_internal_r+0x1e60>
 80025bc:	d8c12617 	ldw	r3,1176(sp)
 80025c0:	48d3883a 	add	r9,r9,r3
 80025c4:	003e5b06 	br	8001f34 <__alt_data_end+0xfc001f34>
 80025c8:	d9013717 	ldw	r4,1244(sp)
 80025cc:	a80b883a 	mov	r5,r21
 80025d0:	000d883a 	mov	r6,zero
 80025d4:	000f883a 	mov	r7,zero
 80025d8:	da013f15 	stw	r8,1276(sp)
 80025dc:	da413e15 	stw	r9,1272(sp)
 80025e0:	800b8f00 	call	800b8f0 <__eqdf2>
 80025e4:	da013f17 	ldw	r8,1276(sp)
 80025e8:	da413e17 	ldw	r9,1272(sp)
 80025ec:	103ff326 	beq	r2,zero,80025bc <__alt_data_end+0xfc0025bc>
 80025f0:	00800044 	movi	r2,1
 80025f4:	1707c83a 	sub	r3,r2,fp
 80025f8:	d8c12615 	stw	r3,1176(sp)
 80025fc:	48d3883a 	add	r9,r9,r3
 8002600:	003e4c06 	br	8001f34 <__alt_data_end+0xfc001f34>
 8002604:	94bfff84 	addi	r18,r18,-2
 8002608:	157fffc4 	addi	r21,r2,-1
 800260c:	dd412615 	stw	r21,1176(sp)
 8002610:	dc8122c5 	stb	r18,1163(sp)
 8002614:	a8009016 	blt	r21,zero,8002858 <___vfprintf_internal_r+0x20f0>
 8002618:	00800ac4 	movi	r2,43
 800261c:	d8812305 	stb	r2,1164(sp)
 8002620:	05000244 	movi	r20,9
 8002624:	a5404a16 	blt	r20,r21,8002750 <___vfprintf_internal_r+0x1fe8>
 8002628:	00800c04 	movi	r2,48
 800262c:	ad400c04 	addi	r21,r21,48
 8002630:	d8812345 	stb	r2,1165(sp)
 8002634:	dd412385 	stb	r21,1166(sp)
 8002638:	d8c123c4 	addi	r3,sp,1167
 800263c:	d88122c4 	addi	r2,sp,1163
 8002640:	1885c83a 	sub	r2,r3,r2
 8002644:	d8c13517 	ldw	r3,1236(sp)
 8002648:	d9013517 	ldw	r4,1236(sp)
 800264c:	d8813a15 	stw	r2,1256(sp)
 8002650:	1887883a 	add	r3,r3,r2
 8002654:	d8c12e15 	stw	r3,1208(sp)
 8002658:	00800044 	movi	r2,1
 800265c:	11007a0e 	bge	r2,r4,8002848 <___vfprintf_internal_r+0x20e0>
 8002660:	d8c12e17 	ldw	r3,1208(sp)
 8002664:	18c00044 	addi	r3,r3,1
 8002668:	d8c12e15 	stw	r3,1208(sp)
 800266c:	1805883a 	mov	r2,r3
 8002670:	18000216 	blt	r3,zero,800267c <___vfprintf_internal_r+0x1f14>
 8002674:	d8013315 	stw	zero,1228(sp)
 8002678:	003e5506 	br	8001fd0 <__alt_data_end+0xfc001fd0>
 800267c:	0005883a 	mov	r2,zero
 8002680:	d8013315 	stw	zero,1228(sp)
 8002684:	003e5206 	br	8001fd0 <__alt_data_end+0xfc001fd0>
 8002688:	a03e031e 	bne	r20,zero,8001e98 <__alt_data_end+0xfc001e98>
 800268c:	8029883a 	mov	r20,r16
 8002690:	003e0106 	br	8001e98 <__alt_data_end+0xfc001e98>
 8002694:	d9012c17 	ldw	r4,1200(sp)
 8002698:	980b883a 	mov	r5,r19
 800269c:	d9811e04 	addi	r6,sp,1144
 80026a0:	8007a700 	call	8007a70 <__sprint_r>
 80026a4:	10394c1e 	bne	r2,zero,8000bd8 <__alt_data_end+0xfc000bd8>
 80026a8:	dc812617 	ldw	r18,1176(sp)
 80026ac:	d8c12017 	ldw	r3,1152(sp)
 80026b0:	d8811f17 	ldw	r2,1148(sp)
 80026b4:	da000404 	addi	r8,sp,16
 80026b8:	003ec706 	br	80021d8 <__alt_data_end+0xfc0021d8>
 80026bc:	05000184 	movi	r20,6
 80026c0:	003df506 	br	8001e98 <__alt_data_end+0xfc001e98>
 80026c4:	00c00b44 	movi	r3,45
 80026c8:	2560003c 	xorhi	r21,r4,32768
 80026cc:	d8c12b05 	stb	r3,1196(sp)
 80026d0:	003df806 	br	8001eb4 <__alt_data_end+0xfc001eb4>
 80026d4:	a7000044 	addi	fp,r20,1
 80026d8:	003dfd06 	br	8001ed0 <__alt_data_end+0xfc001ed0>
 80026dc:	d8c13317 	ldw	r3,1228(sp)
 80026e0:	00c0610e 	bge	zero,r3,8002868 <___vfprintf_internal_r+0x2100>
 80026e4:	00800044 	movi	r2,1
 80026e8:	d9013517 	ldw	r4,1236(sp)
 80026ec:	1105883a 	add	r2,r2,r4
 80026f0:	d8812e15 	stw	r2,1208(sp)
 80026f4:	10000716 	blt	r2,zero,8002714 <___vfprintf_internal_r+0x1fac>
 80026f8:	048019c4 	movi	r18,103
 80026fc:	003e3406 	br	8001fd0 <__alt_data_end+0xfc001fd0>
 8002700:	d8c13317 	ldw	r3,1228(sp)
 8002704:	18c00044 	addi	r3,r3,1
 8002708:	d8c12e15 	stw	r3,1208(sp)
 800270c:	1805883a 	mov	r2,r3
 8002710:	183ff90e 	bge	r3,zero,80026f8 <__alt_data_end+0xfc0026f8>
 8002714:	0005883a 	mov	r2,zero
 8002718:	048019c4 	movi	r18,103
 800271c:	003e2c06 	br	8001fd0 <__alt_data_end+0xfc001fd0>
 8002720:	d8812117 	ldw	r2,1156(sp)
 8002724:	003e1506 	br	8001f7c <__alt_data_end+0xfc001f7c>
 8002728:	00c0400e 	bge	zero,r3,800282c <___vfprintf_internal_r+0x20c4>
 800272c:	a0002a1e 	bne	r20,zero,80027d8 <___vfprintf_internal_r+0x2070>
 8002730:	d9012a17 	ldw	r4,1192(sp)
 8002734:	2080004c 	andi	r2,r4,1
 8002738:	1000271e 	bne	r2,zero,80027d8 <___vfprintf_internal_r+0x2070>
 800273c:	1805883a 	mov	r2,r3
 8002740:	18005a16 	blt	r3,zero,80028ac <___vfprintf_internal_r+0x2144>
 8002744:	d8c13317 	ldw	r3,1228(sp)
 8002748:	d8c12e15 	stw	r3,1208(sp)
 800274c:	003e2006 	br	8001fd0 <__alt_data_end+0xfc001fd0>
 8002750:	d8c12284 	addi	r3,sp,1162
 8002754:	4039883a 	mov	fp,r8
 8002758:	a809883a 	mov	r4,r21
 800275c:	01400284 	movi	r5,10
 8002760:	182d883a 	mov	r22,r3
 8002764:	800a6540 	call	800a654 <__modsi3>
 8002768:	10800c04 	addi	r2,r2,48
 800276c:	a809883a 	mov	r4,r21
 8002770:	b0800005 	stb	r2,0(r22)
 8002774:	01400284 	movi	r5,10
 8002778:	800a60c0 	call	800a60c <__divsi3>
 800277c:	102b883a 	mov	r21,r2
 8002780:	b0ffffc4 	addi	r3,r22,-1
 8002784:	a0bff416 	blt	r20,r2,8002758 <__alt_data_end+0xfc002758>
 8002788:	11400c04 	addi	r5,r2,48
 800278c:	b17fffc5 	stb	r5,-1(r22)
 8002790:	d88122c4 	addi	r2,sp,1163
 8002794:	e011883a 	mov	r8,fp
 8002798:	1880462e 	bgeu	r3,r2,80028b4 <___vfprintf_internal_r+0x214c>
 800279c:	d9012344 	addi	r4,sp,1165
 80027a0:	b007883a 	mov	r3,r22
 80027a4:	00000206 	br	80027b0 <___vfprintf_internal_r+0x2048>
 80027a8:	19400003 	ldbu	r5,0(r3)
 80027ac:	18c00044 	addi	r3,r3,1
 80027b0:	21400005 	stb	r5,0(r4)
 80027b4:	21000044 	addi	r4,r4,1
 80027b8:	10fffb1e 	bne	r2,r3,80027a8 <__alt_data_end+0xfc0027a8>
 80027bc:	d8c12304 	addi	r3,sp,1164
 80027c0:	1d87c83a 	sub	r3,r3,r22
 80027c4:	d9412344 	addi	r5,sp,1165
 80027c8:	28c7883a 	add	r3,r5,r3
 80027cc:	003f9c06 	br	8002640 <__alt_data_end+0xfc002640>
 80027d0:	0005883a 	mov	r2,zero
 80027d4:	003f2c06 	br	8002488 <__alt_data_end+0xfc002488>
 80027d8:	d8c13317 	ldw	r3,1228(sp)
 80027dc:	a5000044 	addi	r20,r20,1
 80027e0:	1d29883a 	add	r20,r3,r20
 80027e4:	dd012e15 	stw	r20,1208(sp)
 80027e8:	a005883a 	mov	r2,r20
 80027ec:	a03df80e 	bge	r20,zero,8001fd0 <__alt_data_end+0xfc001fd0>
 80027f0:	0005883a 	mov	r2,zero
 80027f4:	003df606 	br	8001fd0 <__alt_data_end+0xfc001fd0>
 80027f8:	043fffc4 	movi	r16,-1
 80027fc:	0038d406 	br	8000b50 <__alt_data_end+0xfc000b50>
 8002800:	d9012f17 	ldw	r4,1212(sp)
 8002804:	8c800043 	ldbu	r18,1(r17)
 8002808:	1023883a 	mov	r17,r2
 800280c:	20c00017 	ldw	r3,0(r4)
 8002810:	21000104 	addi	r4,r4,4
 8002814:	d9012f15 	stw	r4,1212(sp)
 8002818:	18001f16 	blt	r3,zero,8002898 <___vfprintf_internal_r+0x2130>
 800281c:	94803fcc 	andi	r18,r18,255
 8002820:	9480201c 	xori	r18,r18,128
 8002824:	94bfe004 	addi	r18,r18,-128
 8002828:	00383406 	br	80008fc <__alt_data_end+0xfc0008fc>
 800282c:	a000111e 	bne	r20,zero,8002874 <___vfprintf_internal_r+0x210c>
 8002830:	d9012a17 	ldw	r4,1192(sp)
 8002834:	2080004c 	andi	r2,r4,1
 8002838:	10000e1e 	bne	r2,zero,8002874 <___vfprintf_internal_r+0x210c>
 800283c:	00800044 	movi	r2,1
 8002840:	d8812e15 	stw	r2,1208(sp)
 8002844:	003de206 	br	8001fd0 <__alt_data_end+0xfc001fd0>
 8002848:	d9412a17 	ldw	r5,1192(sp)
 800284c:	2884703a 	and	r2,r5,r2
 8002850:	103f831e 	bne	r2,zero,8002660 <__alt_data_end+0xfc002660>
 8002854:	003f8506 	br	800266c <__alt_data_end+0xfc00266c>
 8002858:	00800b44 	movi	r2,45
 800285c:	056bc83a 	sub	r21,zero,r21
 8002860:	d8812305 	stb	r2,1164(sp)
 8002864:	003f6e06 	br	8002620 <__alt_data_end+0xfc002620>
 8002868:	00800084 	movi	r2,2
 800286c:	10c5c83a 	sub	r2,r2,r3
 8002870:	003f9d06 	br	80026e8 <__alt_data_end+0xfc0026e8>
 8002874:	a5000084 	addi	r20,r20,2
 8002878:	dd012e15 	stw	r20,1208(sp)
 800287c:	a005883a 	mov	r2,r20
 8002880:	a03dd30e 	bge	r20,zero,8001fd0 <__alt_data_end+0xfc001fd0>
 8002884:	003fda06 	br	80027f0 <__alt_data_end+0xfc0027f0>
 8002888:	0005883a 	mov	r2,zero
 800288c:	003dcd06 	br	8001fc4 <__alt_data_end+0xfc001fc4>
 8002890:	d8812617 	ldw	r2,1176(sp)
 8002894:	003f5c06 	br	8002608 <__alt_data_end+0xfc002608>
 8002898:	94803fcc 	andi	r18,r18,255
 800289c:	9480201c 	xori	r18,r18,128
 80028a0:	00ffffc4 	movi	r3,-1
 80028a4:	94bfe004 	addi	r18,r18,-128
 80028a8:	00381406 	br	80008fc <__alt_data_end+0xfc0008fc>
 80028ac:	0005883a 	mov	r2,zero
 80028b0:	003fa406 	br	8002744 <__alt_data_end+0xfc002744>
 80028b4:	d8c12344 	addi	r3,sp,1165
 80028b8:	003f6106 	br	8002640 <__alt_data_end+0xfc002640>

080028bc <__vfprintf_internal>:
 80028bc:	00820074 	movhi	r2,2049
 80028c0:	10864704 	addi	r2,r2,6428
 80028c4:	2007883a 	mov	r3,r4
 80028c8:	11000017 	ldw	r4,0(r2)
 80028cc:	2805883a 	mov	r2,r5
 80028d0:	300f883a 	mov	r7,r6
 80028d4:	180b883a 	mov	r5,r3
 80028d8:	100d883a 	mov	r6,r2
 80028dc:	80007681 	jmpi	8000768 <___vfprintf_internal_r>

080028e0 <__swsetup_r>:
 80028e0:	00820074 	movhi	r2,2049
 80028e4:	10864704 	addi	r2,r2,6428
 80028e8:	10800017 	ldw	r2,0(r2)
 80028ec:	defffd04 	addi	sp,sp,-12
 80028f0:	dc400115 	stw	r17,4(sp)
 80028f4:	dc000015 	stw	r16,0(sp)
 80028f8:	dfc00215 	stw	ra,8(sp)
 80028fc:	2023883a 	mov	r17,r4
 8002900:	2821883a 	mov	r16,r5
 8002904:	10000226 	beq	r2,zero,8002910 <__swsetup_r+0x30>
 8002908:	10c00e17 	ldw	r3,56(r2)
 800290c:	18002e26 	beq	r3,zero,80029c8 <__swsetup_r+0xe8>
 8002910:	8080030b 	ldhu	r2,12(r16)
 8002914:	10c0020c 	andi	r3,r2,8
 8002918:	100d883a 	mov	r6,r2
 800291c:	18000f26 	beq	r3,zero,800295c <__swsetup_r+0x7c>
 8002920:	80c00417 	ldw	r3,16(r16)
 8002924:	18001526 	beq	r3,zero,800297c <__swsetup_r+0x9c>
 8002928:	1100004c 	andi	r4,r2,1
 800292c:	20001c1e 	bne	r4,zero,80029a0 <__swsetup_r+0xc0>
 8002930:	1080008c 	andi	r2,r2,2
 8002934:	1000271e 	bne	r2,zero,80029d4 <__swsetup_r+0xf4>
 8002938:	80800517 	ldw	r2,20(r16)
 800293c:	80800215 	stw	r2,8(r16)
 8002940:	18001c26 	beq	r3,zero,80029b4 <__swsetup_r+0xd4>
 8002944:	0005883a 	mov	r2,zero
 8002948:	dfc00217 	ldw	ra,8(sp)
 800294c:	dc400117 	ldw	r17,4(sp)
 8002950:	dc000017 	ldw	r16,0(sp)
 8002954:	dec00304 	addi	sp,sp,12
 8002958:	f800283a 	ret
 800295c:	3080040c 	andi	r2,r6,16
 8002960:	10001726 	beq	r2,zero,80029c0 <__swsetup_r+0xe0>
 8002964:	3080010c 	andi	r2,r6,4
 8002968:	10001d1e 	bne	r2,zero,80029e0 <__swsetup_r+0x100>
 800296c:	80c00417 	ldw	r3,16(r16)
 8002970:	30800214 	ori	r2,r6,8
 8002974:	8080030d 	sth	r2,12(r16)
 8002978:	183feb1e 	bne	r3,zero,8002928 <__alt_data_end+0xfc002928>
 800297c:	1140a00c 	andi	r5,r2,640
 8002980:	01008004 	movi	r4,512
 8002984:	293fe826 	beq	r5,r4,8002928 <__alt_data_end+0xfc002928>
 8002988:	8809883a 	mov	r4,r17
 800298c:	800b883a 	mov	r5,r16
 8002990:	80053800 	call	8005380 <__smakebuf_r>
 8002994:	8080030b 	ldhu	r2,12(r16)
 8002998:	80c00417 	ldw	r3,16(r16)
 800299c:	003fe206 	br	8002928 <__alt_data_end+0xfc002928>
 80029a0:	80800517 	ldw	r2,20(r16)
 80029a4:	80000215 	stw	zero,8(r16)
 80029a8:	0085c83a 	sub	r2,zero,r2
 80029ac:	80800615 	stw	r2,24(r16)
 80029b0:	183fe41e 	bne	r3,zero,8002944 <__alt_data_end+0xfc002944>
 80029b4:	8080030b 	ldhu	r2,12(r16)
 80029b8:	1080200c 	andi	r2,r2,128
 80029bc:	103fe226 	beq	r2,zero,8002948 <__alt_data_end+0xfc002948>
 80029c0:	00bfffc4 	movi	r2,-1
 80029c4:	003fe006 	br	8002948 <__alt_data_end+0xfc002948>
 80029c8:	1009883a 	mov	r4,r2
 80029cc:	800459c0 	call	800459c <__sinit>
 80029d0:	003fcf06 	br	8002910 <__alt_data_end+0xfc002910>
 80029d4:	0005883a 	mov	r2,zero
 80029d8:	80800215 	stw	r2,8(r16)
 80029dc:	003fd806 	br	8002940 <__alt_data_end+0xfc002940>
 80029e0:	81400c17 	ldw	r5,48(r16)
 80029e4:	28000626 	beq	r5,zero,8002a00 <__swsetup_r+0x120>
 80029e8:	80801004 	addi	r2,r16,64
 80029ec:	28800326 	beq	r5,r2,80029fc <__swsetup_r+0x11c>
 80029f0:	8809883a 	mov	r4,r17
 80029f4:	80049d00 	call	80049d0 <_free_r>
 80029f8:	8180030b 	ldhu	r6,12(r16)
 80029fc:	80000c15 	stw	zero,48(r16)
 8002a00:	80c00417 	ldw	r3,16(r16)
 8002a04:	00bff6c4 	movi	r2,-37
 8002a08:	118c703a 	and	r6,r2,r6
 8002a0c:	80000115 	stw	zero,4(r16)
 8002a10:	80c00015 	stw	r3,0(r16)
 8002a14:	003fd606 	br	8002970 <__alt_data_end+0xfc002970>

08002a18 <quorem>:
 8002a18:	defff204 	addi	sp,sp,-56
 8002a1c:	dd400915 	stw	r21,36(sp)
 8002a20:	20800417 	ldw	r2,16(r4)
 8002a24:	2d400417 	ldw	r21,16(r5)
 8002a28:	dfc00d15 	stw	ra,52(sp)
 8002a2c:	df000c15 	stw	fp,48(sp)
 8002a30:	ddc00b15 	stw	r23,44(sp)
 8002a34:	dd800a15 	stw	r22,40(sp)
 8002a38:	dd000815 	stw	r20,32(sp)
 8002a3c:	dcc00715 	stw	r19,28(sp)
 8002a40:	dc800615 	stw	r18,24(sp)
 8002a44:	dc400515 	stw	r17,20(sp)
 8002a48:	dc000415 	stw	r16,16(sp)
 8002a4c:	d9000015 	stw	r4,0(sp)
 8002a50:	d9400115 	stw	r5,4(sp)
 8002a54:	15407816 	blt	r2,r21,8002c38 <quorem+0x220>
 8002a58:	ad7fffc4 	addi	r21,r21,-1
 8002a5c:	ad79883a 	add	fp,r21,r21
 8002a60:	28c00504 	addi	r3,r5,20
 8002a64:	e739883a 	add	fp,fp,fp
 8002a68:	1f2f883a 	add	r23,r3,fp
 8002a6c:	24400504 	addi	r17,r4,20
 8002a70:	8f39883a 	add	fp,r17,fp
 8002a74:	b9400017 	ldw	r5,0(r23)
 8002a78:	e1000017 	ldw	r4,0(fp)
 8002a7c:	d8c00215 	stw	r3,8(sp)
 8002a80:	29400044 	addi	r5,r5,1
 8002a84:	df000315 	stw	fp,12(sp)
 8002a88:	800a6a00 	call	800a6a0 <__udivsi3>
 8002a8c:	1021883a 	mov	r16,r2
 8002a90:	10003026 	beq	r2,zero,8002b54 <quorem+0x13c>
 8002a94:	dcc00217 	ldw	r19,8(sp)
 8002a98:	8829883a 	mov	r20,r17
 8002a9c:	002d883a 	mov	r22,zero
 8002aa0:	0039883a 	mov	fp,zero
 8002aa4:	9c800017 	ldw	r18,0(r19)
 8002aa8:	800b883a 	mov	r5,r16
 8002aac:	9cc00104 	addi	r19,r19,4
 8002ab0:	913fffcc 	andi	r4,r18,65535
 8002ab4:	800a6b00 	call	800a6b0 <__mulsi3>
 8002ab8:	9008d43a 	srli	r4,r18,16
 8002abc:	800b883a 	mov	r5,r16
 8002ac0:	b0ad883a 	add	r22,r22,r2
 8002ac4:	800a6b00 	call	800a6b0 <__mulsi3>
 8002ac8:	a1400017 	ldw	r5,0(r20)
 8002acc:	b010d43a 	srli	r8,r22,16
 8002ad0:	b0ffffcc 	andi	r3,r22,65535
 8002ad4:	293fffcc 	andi	r4,r5,65535
 8002ad8:	2709883a 	add	r4,r4,fp
 8002adc:	280cd43a 	srli	r6,r5,16
 8002ae0:	20c9c83a 	sub	r4,r4,r3
 8002ae4:	4085883a 	add	r2,r8,r2
 8002ae8:	2007d43a 	srai	r3,r4,16
 8002aec:	117fffcc 	andi	r5,r2,65535
 8002af0:	314bc83a 	sub	r5,r6,r5
 8002af4:	28cb883a 	add	r5,r5,r3
 8002af8:	280c943a 	slli	r6,r5,16
 8002afc:	213fffcc 	andi	r4,r4,65535
 8002b00:	102cd43a 	srli	r22,r2,16
 8002b04:	3108b03a 	or	r4,r6,r4
 8002b08:	a1000015 	stw	r4,0(r20)
 8002b0c:	2839d43a 	srai	fp,r5,16
 8002b10:	a5000104 	addi	r20,r20,4
 8002b14:	bcffe32e 	bgeu	r23,r19,8002aa4 <__alt_data_end+0xfc002aa4>
 8002b18:	d8c00317 	ldw	r3,12(sp)
 8002b1c:	18800017 	ldw	r2,0(r3)
 8002b20:	10000c1e 	bne	r2,zero,8002b54 <quorem+0x13c>
 8002b24:	18bfff04 	addi	r2,r3,-4
 8002b28:	8880082e 	bgeu	r17,r2,8002b4c <quorem+0x134>
 8002b2c:	18ffff17 	ldw	r3,-4(r3)
 8002b30:	18000326 	beq	r3,zero,8002b40 <quorem+0x128>
 8002b34:	00000506 	br	8002b4c <quorem+0x134>
 8002b38:	10c00017 	ldw	r3,0(r2)
 8002b3c:	1800031e 	bne	r3,zero,8002b4c <quorem+0x134>
 8002b40:	10bfff04 	addi	r2,r2,-4
 8002b44:	ad7fffc4 	addi	r21,r21,-1
 8002b48:	88bffb36 	bltu	r17,r2,8002b38 <__alt_data_end+0xfc002b38>
 8002b4c:	d8c00017 	ldw	r3,0(sp)
 8002b50:	1d400415 	stw	r21,16(r3)
 8002b54:	d9000017 	ldw	r4,0(sp)
 8002b58:	d9400117 	ldw	r5,4(sp)
 8002b5c:	8006aac0 	call	8006aac <__mcmp>
 8002b60:	10002816 	blt	r2,zero,8002c04 <quorem+0x1ec>
 8002b64:	d8c00217 	ldw	r3,8(sp)
 8002b68:	84000044 	addi	r16,r16,1
 8002b6c:	880d883a 	mov	r6,r17
 8002b70:	000f883a 	mov	r7,zero
 8002b74:	32800017 	ldw	r10,0(r6)
 8002b78:	1a400017 	ldw	r9,0(r3)
 8002b7c:	31800104 	addi	r6,r6,4
 8002b80:	523fffcc 	andi	r8,r10,65535
 8002b84:	48bfffcc 	andi	r2,r9,65535
 8002b88:	41cf883a 	add	r7,r8,r7
 8002b8c:	3891c83a 	sub	r8,r7,r2
 8002b90:	4812d43a 	srli	r9,r9,16
 8002b94:	500ed43a 	srli	r7,r10,16
 8002b98:	4005d43a 	srai	r2,r8,16
 8002b9c:	423fffcc 	andi	r8,r8,65535
 8002ba0:	3a4fc83a 	sub	r7,r7,r9
 8002ba4:	388f883a 	add	r7,r7,r2
 8002ba8:	3804943a 	slli	r2,r7,16
 8002bac:	18c00104 	addi	r3,r3,4
 8002bb0:	380fd43a 	srai	r7,r7,16
 8002bb4:	1210b03a 	or	r8,r2,r8
 8002bb8:	323fff15 	stw	r8,-4(r6)
 8002bbc:	b8ffed2e 	bgeu	r23,r3,8002b74 <__alt_data_end+0xfc002b74>
 8002bc0:	ad45883a 	add	r2,r21,r21
 8002bc4:	1085883a 	add	r2,r2,r2
 8002bc8:	8887883a 	add	r3,r17,r2
 8002bcc:	18800017 	ldw	r2,0(r3)
 8002bd0:	10000c1e 	bne	r2,zero,8002c04 <quorem+0x1ec>
 8002bd4:	18bfff04 	addi	r2,r3,-4
 8002bd8:	8880082e 	bgeu	r17,r2,8002bfc <quorem+0x1e4>
 8002bdc:	18ffff17 	ldw	r3,-4(r3)
 8002be0:	18000326 	beq	r3,zero,8002bf0 <quorem+0x1d8>
 8002be4:	00000506 	br	8002bfc <quorem+0x1e4>
 8002be8:	10c00017 	ldw	r3,0(r2)
 8002bec:	1800031e 	bne	r3,zero,8002bfc <quorem+0x1e4>
 8002bf0:	10bfff04 	addi	r2,r2,-4
 8002bf4:	ad7fffc4 	addi	r21,r21,-1
 8002bf8:	88bffb36 	bltu	r17,r2,8002be8 <__alt_data_end+0xfc002be8>
 8002bfc:	d8c00017 	ldw	r3,0(sp)
 8002c00:	1d400415 	stw	r21,16(r3)
 8002c04:	8005883a 	mov	r2,r16
 8002c08:	dfc00d17 	ldw	ra,52(sp)
 8002c0c:	df000c17 	ldw	fp,48(sp)
 8002c10:	ddc00b17 	ldw	r23,44(sp)
 8002c14:	dd800a17 	ldw	r22,40(sp)
 8002c18:	dd400917 	ldw	r21,36(sp)
 8002c1c:	dd000817 	ldw	r20,32(sp)
 8002c20:	dcc00717 	ldw	r19,28(sp)
 8002c24:	dc800617 	ldw	r18,24(sp)
 8002c28:	dc400517 	ldw	r17,20(sp)
 8002c2c:	dc000417 	ldw	r16,16(sp)
 8002c30:	dec00e04 	addi	sp,sp,56
 8002c34:	f800283a 	ret
 8002c38:	0005883a 	mov	r2,zero
 8002c3c:	003ff206 	br	8002c08 <__alt_data_end+0xfc002c08>

08002c40 <_dtoa_r>:
 8002c40:	20801017 	ldw	r2,64(r4)
 8002c44:	deffdf04 	addi	sp,sp,-132
 8002c48:	dcc01a15 	stw	r19,104(sp)
 8002c4c:	dc801915 	stw	r18,100(sp)
 8002c50:	dc401815 	stw	r17,96(sp)
 8002c54:	dc001715 	stw	r16,92(sp)
 8002c58:	dfc02015 	stw	ra,128(sp)
 8002c5c:	df001f15 	stw	fp,124(sp)
 8002c60:	ddc01e15 	stw	r23,120(sp)
 8002c64:	dd801d15 	stw	r22,116(sp)
 8002c68:	dd401c15 	stw	r21,112(sp)
 8002c6c:	dd001b15 	stw	r20,108(sp)
 8002c70:	d9400315 	stw	r5,12(sp)
 8002c74:	d9c00415 	stw	r7,16(sp)
 8002c78:	2021883a 	mov	r16,r4
 8002c7c:	3023883a 	mov	r17,r6
 8002c80:	dcc02317 	ldw	r19,140(sp)
 8002c84:	3025883a 	mov	r18,r6
 8002c88:	10000826 	beq	r2,zero,8002cac <_dtoa_r+0x6c>
 8002c8c:	20c01117 	ldw	r3,68(r4)
 8002c90:	01800044 	movi	r6,1
 8002c94:	100b883a 	mov	r5,r2
 8002c98:	30cc983a 	sll	r6,r6,r3
 8002c9c:	10c00115 	stw	r3,4(r2)
 8002ca0:	11800215 	stw	r6,8(r2)
 8002ca4:	80061e40 	call	80061e4 <_Bfree>
 8002ca8:	80001015 	stw	zero,64(r16)
 8002cac:	88002e16 	blt	r17,zero,8002d68 <_dtoa_r+0x128>
 8002cb0:	98000015 	stw	zero,0(r19)
 8002cb4:	88dffc2c 	andhi	r3,r17,32752
 8002cb8:	009ffc34 	movhi	r2,32752
 8002cbc:	18801b26 	beq	r3,r2,8002d2c <_dtoa_r+0xec>
 8002cc0:	d9000317 	ldw	r4,12(sp)
 8002cc4:	900b883a 	mov	r5,r18
 8002cc8:	000d883a 	mov	r6,zero
 8002ccc:	000f883a 	mov	r7,zero
 8002cd0:	800b8f00 	call	800b8f0 <__eqdf2>
 8002cd4:	10002b1e 	bne	r2,zero,8002d84 <_dtoa_r+0x144>
 8002cd8:	d8c02217 	ldw	r3,136(sp)
 8002cdc:	d9002417 	ldw	r4,144(sp)
 8002ce0:	00800044 	movi	r2,1
 8002ce4:	18800015 	stw	r2,0(r3)
 8002ce8:	2001a026 	beq	r4,zero,800336c <_dtoa_r+0x72c>
 8002cec:	00820074 	movhi	r2,2049
 8002cf0:	10bedb44 	addi	r2,r2,-1171
 8002cf4:	20800015 	stw	r2,0(r4)
 8002cf8:	10bfffc4 	addi	r2,r2,-1
 8002cfc:	dfc02017 	ldw	ra,128(sp)
 8002d00:	df001f17 	ldw	fp,124(sp)
 8002d04:	ddc01e17 	ldw	r23,120(sp)
 8002d08:	dd801d17 	ldw	r22,116(sp)
 8002d0c:	dd401c17 	ldw	r21,112(sp)
 8002d10:	dd001b17 	ldw	r20,108(sp)
 8002d14:	dcc01a17 	ldw	r19,104(sp)
 8002d18:	dc801917 	ldw	r18,100(sp)
 8002d1c:	dc401817 	ldw	r17,96(sp)
 8002d20:	dc001717 	ldw	r16,92(sp)
 8002d24:	dec02104 	addi	sp,sp,132
 8002d28:	f800283a 	ret
 8002d2c:	d8c02217 	ldw	r3,136(sp)
 8002d30:	d9000317 	ldw	r4,12(sp)
 8002d34:	0089c3c4 	movi	r2,9999
 8002d38:	18800015 	stw	r2,0(r3)
 8002d3c:	20017926 	beq	r4,zero,8003324 <_dtoa_r+0x6e4>
 8002d40:	00820074 	movhi	r2,2049
 8002d44:	10bee704 	addi	r2,r2,-1124
 8002d48:	d9802417 	ldw	r6,144(sp)
 8002d4c:	303feb26 	beq	r6,zero,8002cfc <__alt_data_end+0xfc002cfc>
 8002d50:	10c000c7 	ldb	r3,3(r2)
 8002d54:	18017a1e 	bne	r3,zero,8003340 <_dtoa_r+0x700>
 8002d58:	10c000c4 	addi	r3,r2,3
 8002d5c:	d9c02417 	ldw	r7,144(sp)
 8002d60:	38c00015 	stw	r3,0(r7)
 8002d64:	003fe506 	br	8002cfc <__alt_data_end+0xfc002cfc>
 8002d68:	04a00034 	movhi	r18,32768
 8002d6c:	94bfffc4 	addi	r18,r18,-1
 8002d70:	8ca4703a 	and	r18,r17,r18
 8002d74:	00800044 	movi	r2,1
 8002d78:	98800015 	stw	r2,0(r19)
 8002d7c:	9023883a 	mov	r17,r18
 8002d80:	003fcc06 	br	8002cb4 <__alt_data_end+0xfc002cb4>
 8002d84:	d9400317 	ldw	r5,12(sp)
 8002d88:	d8800204 	addi	r2,sp,8
 8002d8c:	8828d53a 	srli	r20,r17,20
 8002d90:	d8800015 	stw	r2,0(sp)
 8002d94:	8009883a 	mov	r4,r16
 8002d98:	900d883a 	mov	r6,r18
 8002d9c:	d9c00104 	addi	r7,sp,4
 8002da0:	8006e0c0 	call	8006e0c <__d2b>
 8002da4:	1039883a 	mov	fp,r2
 8002da8:	a001671e 	bne	r20,zero,8003348 <_dtoa_r+0x708>
 8002dac:	dd400217 	ldw	r21,8(sp)
 8002db0:	dd000117 	ldw	r20,4(sp)
 8002db4:	00befbc4 	movi	r2,-1041
 8002db8:	ad29883a 	add	r20,r21,r20
 8002dbc:	a082d616 	blt	r20,r2,8003918 <_dtoa_r+0xcd8>
 8002dc0:	d9800317 	ldw	r6,12(sp)
 8002dc4:	013f0384 	movi	r4,-1010
 8002dc8:	2509c83a 	sub	r4,r4,r20
 8002dcc:	a0810484 	addi	r2,r20,1042
 8002dd0:	8922983a 	sll	r17,r17,r4
 8002dd4:	3084d83a 	srl	r2,r6,r2
 8002dd8:	8888b03a 	or	r4,r17,r2
 8002ddc:	800cd100 	call	800cd10 <__floatunsidf>
 8002de0:	1009883a 	mov	r4,r2
 8002de4:	017f8434 	movhi	r5,65040
 8002de8:	00800044 	movi	r2,1
 8002dec:	194b883a 	add	r5,r3,r5
 8002df0:	a53fffc4 	addi	r20,r20,-1
 8002df4:	d8800f15 	stw	r2,60(sp)
 8002df8:	000d883a 	mov	r6,zero
 8002dfc:	01cffe34 	movhi	r7,16376
 8002e00:	800c3380 	call	800c338 <__subdf3>
 8002e04:	1009883a 	mov	r4,r2
 8002e08:	180b883a 	mov	r5,r3
 8002e0c:	0198dbf4 	movhi	r6,25455
 8002e10:	3190d844 	addi	r6,r6,17249
 8002e14:	01cff4f4 	movhi	r7,16339
 8002e18:	39e1e9c4 	addi	r7,r7,-30809
 8002e1c:	800bb380 	call	800bb38 <__muldf3>
 8002e20:	180b883a 	mov	r5,r3
 8002e24:	01a2d874 	movhi	r6,35681
 8002e28:	31b22cc4 	addi	r6,r6,-14157
 8002e2c:	01cff1f4 	movhi	r7,16327
 8002e30:	39e28a04 	addi	r7,r7,-30168
 8002e34:	1009883a 	mov	r4,r2
 8002e38:	800a6d80 	call	800a6d8 <__adddf3>
 8002e3c:	a009883a 	mov	r4,r20
 8002e40:	1027883a 	mov	r19,r2
 8002e44:	1823883a 	mov	r17,r3
 8002e48:	800cc400 	call	800cc40 <__floatsidf>
 8002e4c:	1009883a 	mov	r4,r2
 8002e50:	180b883a 	mov	r5,r3
 8002e54:	019427f4 	movhi	r6,20639
 8002e58:	319e7ec4 	addi	r6,r6,31227
 8002e5c:	01cff4f4 	movhi	r7,16339
 8002e60:	39d104c4 	addi	r7,r7,17427
 8002e64:	800bb380 	call	800bb38 <__muldf3>
 8002e68:	9809883a 	mov	r4,r19
 8002e6c:	880b883a 	mov	r5,r17
 8002e70:	100d883a 	mov	r6,r2
 8002e74:	180f883a 	mov	r7,r3
 8002e78:	800a6d80 	call	800a6d8 <__adddf3>
 8002e7c:	1009883a 	mov	r4,r2
 8002e80:	180b883a 	mov	r5,r3
 8002e84:	1027883a 	mov	r19,r2
 8002e88:	1823883a 	mov	r17,r3
 8002e8c:	800cbc00 	call	800cbc0 <__fixdfsi>
 8002e90:	9809883a 	mov	r4,r19
 8002e94:	880b883a 	mov	r5,r17
 8002e98:	000d883a 	mov	r6,zero
 8002e9c:	000f883a 	mov	r7,zero
 8002ea0:	d8800615 	stw	r2,24(sp)
 8002ea4:	800ba4c0 	call	800ba4c <__ledf2>
 8002ea8:	10028416 	blt	r2,zero,80038bc <_dtoa_r+0xc7c>
 8002eac:	d9000617 	ldw	r4,24(sp)
 8002eb0:	00800584 	movi	r2,22
 8002eb4:	11027236 	bltu	r2,r4,8003880 <_dtoa_r+0xc40>
 8002eb8:	200490fa 	slli	r2,r4,3
 8002ebc:	00c20074 	movhi	r3,2049
 8002ec0:	18ff0304 	addi	r3,r3,-1012
 8002ec4:	d9800317 	ldw	r6,12(sp)
 8002ec8:	1885883a 	add	r2,r3,r2
 8002ecc:	11000017 	ldw	r4,0(r2)
 8002ed0:	11400117 	ldw	r5,4(r2)
 8002ed4:	900f883a 	mov	r7,r18
 8002ed8:	800b9740 	call	800b974 <__gedf2>
 8002edc:	0082930e 	bge	zero,r2,800392c <_dtoa_r+0xcec>
 8002ee0:	d9800617 	ldw	r6,24(sp)
 8002ee4:	d8000e15 	stw	zero,56(sp)
 8002ee8:	31bfffc4 	addi	r6,r6,-1
 8002eec:	d9800615 	stw	r6,24(sp)
 8002ef0:	ad2bc83a 	sub	r21,r21,r20
 8002ef4:	ad7fffc4 	addi	r21,r21,-1
 8002ef8:	a8026c16 	blt	r21,zero,80038ac <_dtoa_r+0xc6c>
 8002efc:	d8000815 	stw	zero,32(sp)
 8002f00:	d8800617 	ldw	r2,24(sp)
 8002f04:	10026116 	blt	r2,zero,800388c <_dtoa_r+0xc4c>
 8002f08:	a8ab883a 	add	r21,r21,r2
 8002f0c:	d8800b15 	stw	r2,44(sp)
 8002f10:	d8000a15 	stw	zero,40(sp)
 8002f14:	d9c00417 	ldw	r7,16(sp)
 8002f18:	00800244 	movi	r2,9
 8002f1c:	11c11636 	bltu	r2,r7,8003378 <_dtoa_r+0x738>
 8002f20:	00800144 	movi	r2,5
 8002f24:	11c4cc0e 	bge	r2,r7,8004258 <_dtoa_r+0x1618>
 8002f28:	39ffff04 	addi	r7,r7,-4
 8002f2c:	d9c00415 	stw	r7,16(sp)
 8002f30:	0027883a 	mov	r19,zero
 8002f34:	d8c00417 	ldw	r3,16(sp)
 8002f38:	008000c4 	movi	r2,3
 8002f3c:	1883aa26 	beq	r3,r2,8003de8 <_dtoa_r+0x11a8>
 8002f40:	10c35b0e 	bge	r2,r3,8003cb0 <_dtoa_r+0x1070>
 8002f44:	d9000417 	ldw	r4,16(sp)
 8002f48:	00800104 	movi	r2,4
 8002f4c:	2082da26 	beq	r4,r2,8003ab8 <_dtoa_r+0xe78>
 8002f50:	00800144 	movi	r2,5
 8002f54:	2081091e 	bne	r4,r2,800337c <_dtoa_r+0x73c>
 8002f58:	01c00044 	movi	r7,1
 8002f5c:	d9c00c15 	stw	r7,48(sp)
 8002f60:	d8c02117 	ldw	r3,132(sp)
 8002f64:	d9000617 	ldw	r4,24(sp)
 8002f68:	1907883a 	add	r3,r3,r4
 8002f6c:	19800044 	addi	r6,r3,1
 8002f70:	d8c00d15 	stw	r3,52(sp)
 8002f74:	d9800915 	stw	r6,36(sp)
 8002f78:	0183a90e 	bge	zero,r6,8003e20 <_dtoa_r+0x11e0>
 8002f7c:	d9800917 	ldw	r6,36(sp)
 8002f80:	80001115 	stw	zero,68(r16)
 8002f84:	008005c4 	movi	r2,23
 8002f88:	1184b52e 	bgeu	r2,r6,8004260 <_dtoa_r+0x1620>
 8002f8c:	00c00044 	movi	r3,1
 8002f90:	00800104 	movi	r2,4
 8002f94:	1085883a 	add	r2,r2,r2
 8002f98:	11000504 	addi	r4,r2,20
 8002f9c:	180b883a 	mov	r5,r3
 8002fa0:	18c00044 	addi	r3,r3,1
 8002fa4:	313ffb2e 	bgeu	r6,r4,8002f94 <__alt_data_end+0xfc002f94>
 8002fa8:	81401115 	stw	r5,68(r16)
 8002fac:	3023883a 	mov	r17,r6
 8002fb0:	8009883a 	mov	r4,r16
 8002fb4:	800613c0 	call	800613c <_Balloc>
 8002fb8:	d8800715 	stw	r2,28(sp)
 8002fbc:	80801015 	stw	r2,64(r16)
 8002fc0:	00800384 	movi	r2,14
 8002fc4:	1440f936 	bltu	r2,r17,80033ac <_dtoa_r+0x76c>
 8002fc8:	9800f826 	beq	r19,zero,80033ac <_dtoa_r+0x76c>
 8002fcc:	d9c00617 	ldw	r7,24(sp)
 8002fd0:	01c39c0e 	bge	zero,r7,8003e44 <_dtoa_r+0x1204>
 8002fd4:	388003cc 	andi	r2,r7,15
 8002fd8:	100490fa 	slli	r2,r2,3
 8002fdc:	382dd13a 	srai	r22,r7,4
 8002fe0:	00c20074 	movhi	r3,2049
 8002fe4:	18ff0304 	addi	r3,r3,-1012
 8002fe8:	1885883a 	add	r2,r3,r2
 8002fec:	b0c0040c 	andi	r3,r22,16
 8002ff0:	12800017 	ldw	r10,0(r2)
 8002ff4:	12400117 	ldw	r9,4(r2)
 8002ff8:	18038526 	beq	r3,zero,8003e10 <_dtoa_r+0x11d0>
 8002ffc:	00820074 	movhi	r2,2049
 8003000:	10bef904 	addi	r2,r2,-1052
 8003004:	11800817 	ldw	r6,32(r2)
 8003008:	11c00917 	ldw	r7,36(r2)
 800300c:	d9000317 	ldw	r4,12(sp)
 8003010:	900b883a 	mov	r5,r18
 8003014:	da401515 	stw	r9,84(sp)
 8003018:	da801615 	stw	r10,88(sp)
 800301c:	800af540 	call	800af54 <__divdf3>
 8003020:	da401517 	ldw	r9,84(sp)
 8003024:	da801617 	ldw	r10,88(sp)
 8003028:	1027883a 	mov	r19,r2
 800302c:	1829883a 	mov	r20,r3
 8003030:	b58003cc 	andi	r22,r22,15
 8003034:	044000c4 	movi	r17,3
 8003038:	b0001126 	beq	r22,zero,8003080 <_dtoa_r+0x440>
 800303c:	05c20074 	movhi	r23,2049
 8003040:	bdfef904 	addi	r23,r23,-1052
 8003044:	5005883a 	mov	r2,r10
 8003048:	4807883a 	mov	r3,r9
 800304c:	b180004c 	andi	r6,r22,1
 8003050:	1009883a 	mov	r4,r2
 8003054:	b02dd07a 	srai	r22,r22,1
 8003058:	180b883a 	mov	r5,r3
 800305c:	30000426 	beq	r6,zero,8003070 <_dtoa_r+0x430>
 8003060:	b9800017 	ldw	r6,0(r23)
 8003064:	b9c00117 	ldw	r7,4(r23)
 8003068:	8c400044 	addi	r17,r17,1
 800306c:	800bb380 	call	800bb38 <__muldf3>
 8003070:	bdc00204 	addi	r23,r23,8
 8003074:	b03ff51e 	bne	r22,zero,800304c <__alt_data_end+0xfc00304c>
 8003078:	1015883a 	mov	r10,r2
 800307c:	1813883a 	mov	r9,r3
 8003080:	9809883a 	mov	r4,r19
 8003084:	a00b883a 	mov	r5,r20
 8003088:	500d883a 	mov	r6,r10
 800308c:	480f883a 	mov	r7,r9
 8003090:	800af540 	call	800af54 <__divdf3>
 8003094:	1027883a 	mov	r19,r2
 8003098:	1829883a 	mov	r20,r3
 800309c:	d8c00e17 	ldw	r3,56(sp)
 80030a0:	18000626 	beq	r3,zero,80030bc <_dtoa_r+0x47c>
 80030a4:	9809883a 	mov	r4,r19
 80030a8:	a00b883a 	mov	r5,r20
 80030ac:	000d883a 	mov	r6,zero
 80030b0:	01cffc34 	movhi	r7,16368
 80030b4:	800ba4c0 	call	800ba4c <__ledf2>
 80030b8:	10041516 	blt	r2,zero,8004110 <_dtoa_r+0x14d0>
 80030bc:	8809883a 	mov	r4,r17
 80030c0:	800cc400 	call	800cc40 <__floatsidf>
 80030c4:	1009883a 	mov	r4,r2
 80030c8:	180b883a 	mov	r5,r3
 80030cc:	980d883a 	mov	r6,r19
 80030d0:	a00f883a 	mov	r7,r20
 80030d4:	800bb380 	call	800bb38 <__muldf3>
 80030d8:	1009883a 	mov	r4,r2
 80030dc:	180b883a 	mov	r5,r3
 80030e0:	000d883a 	mov	r6,zero
 80030e4:	01d00734 	movhi	r7,16412
 80030e8:	800a6d80 	call	800a6d8 <__adddf3>
 80030ec:	1023883a 	mov	r17,r2
 80030f0:	d8800917 	ldw	r2,36(sp)
 80030f4:	05bf3034 	movhi	r22,64704
 80030f8:	1daf883a 	add	r23,r3,r22
 80030fc:	10031e26 	beq	r2,zero,8003d78 <_dtoa_r+0x1138>
 8003100:	d8c00617 	ldw	r3,24(sp)
 8003104:	dac00917 	ldw	r11,36(sp)
 8003108:	d8c01315 	stw	r3,76(sp)
 800310c:	d9000c17 	ldw	r4,48(sp)
 8003110:	20039626 	beq	r4,zero,8003f6c <_dtoa_r+0x132c>
 8003114:	58bfffc4 	addi	r2,r11,-1
 8003118:	100490fa 	slli	r2,r2,3
 800311c:	00c20074 	movhi	r3,2049
 8003120:	18ff0304 	addi	r3,r3,-1012
 8003124:	0009883a 	mov	r4,zero
 8003128:	1885883a 	add	r2,r3,r2
 800312c:	11800017 	ldw	r6,0(r2)
 8003130:	11c00117 	ldw	r7,4(r2)
 8003134:	d8800717 	ldw	r2,28(sp)
 8003138:	014ff834 	movhi	r5,16352
 800313c:	dac01615 	stw	r11,88(sp)
 8003140:	15800044 	addi	r22,r2,1
 8003144:	800af540 	call	800af54 <__divdf3>
 8003148:	880d883a 	mov	r6,r17
 800314c:	b80f883a 	mov	r7,r23
 8003150:	1009883a 	mov	r4,r2
 8003154:	180b883a 	mov	r5,r3
 8003158:	800c3380 	call	800c338 <__subdf3>
 800315c:	a00b883a 	mov	r5,r20
 8003160:	9809883a 	mov	r4,r19
 8003164:	102f883a 	mov	r23,r2
 8003168:	d8c01015 	stw	r3,64(sp)
 800316c:	800cbc00 	call	800cbc0 <__fixdfsi>
 8003170:	1009883a 	mov	r4,r2
 8003174:	d8801515 	stw	r2,84(sp)
 8003178:	800cc400 	call	800cc40 <__floatsidf>
 800317c:	9809883a 	mov	r4,r19
 8003180:	a00b883a 	mov	r5,r20
 8003184:	100d883a 	mov	r6,r2
 8003188:	180f883a 	mov	r7,r3
 800318c:	800c3380 	call	800c338 <__subdf3>
 8003190:	da401517 	ldw	r9,84(sp)
 8003194:	1827883a 	mov	r19,r3
 8003198:	d8c00717 	ldw	r3,28(sp)
 800319c:	d9401017 	ldw	r5,64(sp)
 80031a0:	4a400c04 	addi	r9,r9,48
 80031a4:	1023883a 	mov	r17,r2
 80031a8:	1a400005 	stb	r9,0(r3)
 80031ac:	b809883a 	mov	r4,r23
 80031b0:	880d883a 	mov	r6,r17
 80031b4:	980f883a 	mov	r7,r19
 80031b8:	4829883a 	mov	r20,r9
 80031bc:	800b9740 	call	800b974 <__gedf2>
 80031c0:	00842216 	blt	zero,r2,800424c <_dtoa_r+0x160c>
 80031c4:	0009883a 	mov	r4,zero
 80031c8:	014ffc34 	movhi	r5,16368
 80031cc:	880d883a 	mov	r6,r17
 80031d0:	980f883a 	mov	r7,r19
 80031d4:	800c3380 	call	800c338 <__subdf3>
 80031d8:	d9401017 	ldw	r5,64(sp)
 80031dc:	b809883a 	mov	r4,r23
 80031e0:	100d883a 	mov	r6,r2
 80031e4:	180f883a 	mov	r7,r3
 80031e8:	800b9740 	call	800b974 <__gedf2>
 80031ec:	dac01617 	ldw	r11,88(sp)
 80031f0:	00841316 	blt	zero,r2,8004240 <_dtoa_r+0x1600>
 80031f4:	00800044 	movi	r2,1
 80031f8:	12c06c0e 	bge	r2,r11,80033ac <_dtoa_r+0x76c>
 80031fc:	d9000717 	ldw	r4,28(sp)
 8003200:	dd401215 	stw	r21,72(sp)
 8003204:	dc001115 	stw	r16,68(sp)
 8003208:	22d7883a 	add	r11,r4,r11
 800320c:	dc801415 	stw	r18,80(sp)
 8003210:	582b883a 	mov	r21,r11
 8003214:	b021883a 	mov	r16,r22
 8003218:	dc801017 	ldw	r18,64(sp)
 800321c:	00000906 	br	8003244 <_dtoa_r+0x604>
 8003220:	800c3380 	call	800c338 <__subdf3>
 8003224:	1009883a 	mov	r4,r2
 8003228:	180b883a 	mov	r5,r3
 800322c:	b80d883a 	mov	r6,r23
 8003230:	900f883a 	mov	r7,r18
 8003234:	800ba4c0 	call	800ba4c <__ledf2>
 8003238:	1003ea16 	blt	r2,zero,80041e4 <_dtoa_r+0x15a4>
 800323c:	b543ed26 	beq	r22,r21,80041f4 <_dtoa_r+0x15b4>
 8003240:	b021883a 	mov	r16,r22
 8003244:	b809883a 	mov	r4,r23
 8003248:	900b883a 	mov	r5,r18
 800324c:	000d883a 	mov	r6,zero
 8003250:	01d00934 	movhi	r7,16420
 8003254:	800bb380 	call	800bb38 <__muldf3>
 8003258:	000d883a 	mov	r6,zero
 800325c:	01d00934 	movhi	r7,16420
 8003260:	8809883a 	mov	r4,r17
 8003264:	980b883a 	mov	r5,r19
 8003268:	102f883a 	mov	r23,r2
 800326c:	1825883a 	mov	r18,r3
 8003270:	800bb380 	call	800bb38 <__muldf3>
 8003274:	180b883a 	mov	r5,r3
 8003278:	1009883a 	mov	r4,r2
 800327c:	1823883a 	mov	r17,r3
 8003280:	1027883a 	mov	r19,r2
 8003284:	800cbc00 	call	800cbc0 <__fixdfsi>
 8003288:	1009883a 	mov	r4,r2
 800328c:	1029883a 	mov	r20,r2
 8003290:	800cc400 	call	800cc40 <__floatsidf>
 8003294:	9809883a 	mov	r4,r19
 8003298:	880b883a 	mov	r5,r17
 800329c:	100d883a 	mov	r6,r2
 80032a0:	180f883a 	mov	r7,r3
 80032a4:	800c3380 	call	800c338 <__subdf3>
 80032a8:	a5000c04 	addi	r20,r20,48
 80032ac:	1009883a 	mov	r4,r2
 80032b0:	180b883a 	mov	r5,r3
 80032b4:	b80d883a 	mov	r6,r23
 80032b8:	900f883a 	mov	r7,r18
 80032bc:	85000005 	stb	r20,0(r16)
 80032c0:	1023883a 	mov	r17,r2
 80032c4:	1827883a 	mov	r19,r3
 80032c8:	800ba4c0 	call	800ba4c <__ledf2>
 80032cc:	b5800044 	addi	r22,r22,1
 80032d0:	0009883a 	mov	r4,zero
 80032d4:	014ffc34 	movhi	r5,16368
 80032d8:	880d883a 	mov	r6,r17
 80032dc:	980f883a 	mov	r7,r19
 80032e0:	103fcf0e 	bge	r2,zero,8003220 <__alt_data_end+0xfc003220>
 80032e4:	d8c01317 	ldw	r3,76(sp)
 80032e8:	dc001117 	ldw	r16,68(sp)
 80032ec:	d8c00615 	stw	r3,24(sp)
 80032f0:	8009883a 	mov	r4,r16
 80032f4:	e00b883a 	mov	r5,fp
 80032f8:	80061e40 	call	80061e4 <_Bfree>
 80032fc:	d9800617 	ldw	r6,24(sp)
 8003300:	d9c02217 	ldw	r7,136(sp)
 8003304:	b0000005 	stb	zero,0(r22)
 8003308:	30800044 	addi	r2,r6,1
 800330c:	38800015 	stw	r2,0(r7)
 8003310:	d8802417 	ldw	r2,144(sp)
 8003314:	10026426 	beq	r2,zero,8003ca8 <_dtoa_r+0x1068>
 8003318:	15800015 	stw	r22,0(r2)
 800331c:	d8800717 	ldw	r2,28(sp)
 8003320:	003e7606 	br	8002cfc <__alt_data_end+0xfc002cfc>
 8003324:	00800434 	movhi	r2,16
 8003328:	10bfffc4 	addi	r2,r2,-1
 800332c:	88a2703a 	and	r17,r17,r2
 8003330:	883e831e 	bne	r17,zero,8002d40 <__alt_data_end+0xfc002d40>
 8003334:	00820074 	movhi	r2,2049
 8003338:	10bee404 	addi	r2,r2,-1136
 800333c:	003e8206 	br	8002d48 <__alt_data_end+0xfc002d48>
 8003340:	10c00204 	addi	r3,r2,8
 8003344:	003e8506 	br	8002d5c <__alt_data_end+0xfc002d5c>
 8003348:	01400434 	movhi	r5,16
 800334c:	297fffc4 	addi	r5,r5,-1
 8003350:	914a703a 	and	r5,r18,r5
 8003354:	d9000317 	ldw	r4,12(sp)
 8003358:	294ffc34 	orhi	r5,r5,16368
 800335c:	a53f0044 	addi	r20,r20,-1023
 8003360:	dd400217 	ldw	r21,8(sp)
 8003364:	d8000f15 	stw	zero,60(sp)
 8003368:	003ea306 	br	8002df8 <__alt_data_end+0xfc002df8>
 800336c:	00820074 	movhi	r2,2049
 8003370:	10bedb04 	addi	r2,r2,-1172
 8003374:	003e6106 	br	8002cfc <__alt_data_end+0xfc002cfc>
 8003378:	d8000415 	stw	zero,16(sp)
 800337c:	8009883a 	mov	r4,r16
 8003380:	80001115 	stw	zero,68(r16)
 8003384:	000b883a 	mov	r5,zero
 8003388:	800613c0 	call	800613c <_Balloc>
 800338c:	00ffffc4 	movi	r3,-1
 8003390:	01000044 	movi	r4,1
 8003394:	d8800715 	stw	r2,28(sp)
 8003398:	d8c00d15 	stw	r3,52(sp)
 800339c:	80801015 	stw	r2,64(r16)
 80033a0:	d8002115 	stw	zero,132(sp)
 80033a4:	d8c00915 	stw	r3,36(sp)
 80033a8:	d9000c15 	stw	r4,48(sp)
 80033ac:	d8800117 	ldw	r2,4(sp)
 80033b0:	10008e16 	blt	r2,zero,80035ec <_dtoa_r+0x9ac>
 80033b4:	d9000617 	ldw	r4,24(sp)
 80033b8:	00c00384 	movi	r3,14
 80033bc:	19008b16 	blt	r3,r4,80035ec <_dtoa_r+0x9ac>
 80033c0:	200490fa 	slli	r2,r4,3
 80033c4:	d9802117 	ldw	r6,132(sp)
 80033c8:	00c20074 	movhi	r3,2049
 80033cc:	18ff0304 	addi	r3,r3,-1012
 80033d0:	1885883a 	add	r2,r3,r2
 80033d4:	14400017 	ldw	r17,0(r2)
 80033d8:	14c00117 	ldw	r19,4(r2)
 80033dc:	3001be16 	blt	r6,zero,8003ad8 <_dtoa_r+0xe98>
 80033e0:	d9000317 	ldw	r4,12(sp)
 80033e4:	880d883a 	mov	r6,r17
 80033e8:	980f883a 	mov	r7,r19
 80033ec:	900b883a 	mov	r5,r18
 80033f0:	800af540 	call	800af54 <__divdf3>
 80033f4:	180b883a 	mov	r5,r3
 80033f8:	1009883a 	mov	r4,r2
 80033fc:	800cbc00 	call	800cbc0 <__fixdfsi>
 8003400:	1009883a 	mov	r4,r2
 8003404:	102f883a 	mov	r23,r2
 8003408:	800cc400 	call	800cc40 <__floatsidf>
 800340c:	1009883a 	mov	r4,r2
 8003410:	180b883a 	mov	r5,r3
 8003414:	880d883a 	mov	r6,r17
 8003418:	980f883a 	mov	r7,r19
 800341c:	800bb380 	call	800bb38 <__muldf3>
 8003420:	d9000317 	ldw	r4,12(sp)
 8003424:	900b883a 	mov	r5,r18
 8003428:	100d883a 	mov	r6,r2
 800342c:	180f883a 	mov	r7,r3
 8003430:	800c3380 	call	800c338 <__subdf3>
 8003434:	d9c00717 	ldw	r7,28(sp)
 8003438:	1009883a 	mov	r4,r2
 800343c:	b8800c04 	addi	r2,r23,48
 8003440:	38800005 	stb	r2,0(r7)
 8003444:	3d800044 	addi	r22,r7,1
 8003448:	d9c00917 	ldw	r7,36(sp)
 800344c:	01800044 	movi	r6,1
 8003450:	180b883a 	mov	r5,r3
 8003454:	2005883a 	mov	r2,r4
 8003458:	39803e26 	beq	r7,r6,8003554 <_dtoa_r+0x914>
 800345c:	000d883a 	mov	r6,zero
 8003460:	01d00934 	movhi	r7,16420
 8003464:	800bb380 	call	800bb38 <__muldf3>
 8003468:	1009883a 	mov	r4,r2
 800346c:	180b883a 	mov	r5,r3
 8003470:	000d883a 	mov	r6,zero
 8003474:	000f883a 	mov	r7,zero
 8003478:	1029883a 	mov	r20,r2
 800347c:	182b883a 	mov	r21,r3
 8003480:	800b8f00 	call	800b8f0 <__eqdf2>
 8003484:	103f9a26 	beq	r2,zero,80032f0 <__alt_data_end+0xfc0032f0>
 8003488:	d8c00717 	ldw	r3,28(sp)
 800348c:	d9000917 	ldw	r4,36(sp)
 8003490:	b025883a 	mov	r18,r22
 8003494:	df000415 	stw	fp,16(sp)
 8003498:	1905883a 	add	r2,r3,r4
 800349c:	15ffffc4 	addi	r23,r2,-1
 80034a0:	dc000315 	stw	r16,12(sp)
 80034a4:	00000a06 	br	80034d0 <_dtoa_r+0x890>
 80034a8:	800bb380 	call	800bb38 <__muldf3>
 80034ac:	1009883a 	mov	r4,r2
 80034b0:	180b883a 	mov	r5,r3
 80034b4:	000d883a 	mov	r6,zero
 80034b8:	000f883a 	mov	r7,zero
 80034bc:	1029883a 	mov	r20,r2
 80034c0:	182b883a 	mov	r21,r3
 80034c4:	800b8f00 	call	800b8f0 <__eqdf2>
 80034c8:	10021926 	beq	r2,zero,8003d30 <_dtoa_r+0x10f0>
 80034cc:	e025883a 	mov	r18,fp
 80034d0:	880d883a 	mov	r6,r17
 80034d4:	980f883a 	mov	r7,r19
 80034d8:	a009883a 	mov	r4,r20
 80034dc:	a80b883a 	mov	r5,r21
 80034e0:	800af540 	call	800af54 <__divdf3>
 80034e4:	180b883a 	mov	r5,r3
 80034e8:	1009883a 	mov	r4,r2
 80034ec:	800cbc00 	call	800cbc0 <__fixdfsi>
 80034f0:	1009883a 	mov	r4,r2
 80034f4:	1021883a 	mov	r16,r2
 80034f8:	800cc400 	call	800cc40 <__floatsidf>
 80034fc:	1009883a 	mov	r4,r2
 8003500:	180b883a 	mov	r5,r3
 8003504:	880d883a 	mov	r6,r17
 8003508:	980f883a 	mov	r7,r19
 800350c:	800bb380 	call	800bb38 <__muldf3>
 8003510:	a009883a 	mov	r4,r20
 8003514:	a80b883a 	mov	r5,r21
 8003518:	100d883a 	mov	r6,r2
 800351c:	180f883a 	mov	r7,r3
 8003520:	800c3380 	call	800c338 <__subdf3>
 8003524:	82800c04 	addi	r10,r16,48
 8003528:	97000044 	addi	fp,r18,1
 800352c:	92800005 	stb	r10,0(r18)
 8003530:	000d883a 	mov	r6,zero
 8003534:	01d00934 	movhi	r7,16420
 8003538:	1009883a 	mov	r4,r2
 800353c:	180b883a 	mov	r5,r3
 8003540:	e02d883a 	mov	r22,fp
 8003544:	95ffd81e 	bne	r18,r23,80034a8 <__alt_data_end+0xfc0034a8>
 8003548:	802f883a 	mov	r23,r16
 800354c:	df000417 	ldw	fp,16(sp)
 8003550:	dc000317 	ldw	r16,12(sp)
 8003554:	1009883a 	mov	r4,r2
 8003558:	180b883a 	mov	r5,r3
 800355c:	100d883a 	mov	r6,r2
 8003560:	180f883a 	mov	r7,r3
 8003564:	800a6d80 	call	800a6d8 <__adddf3>
 8003568:	8809883a 	mov	r4,r17
 800356c:	980b883a 	mov	r5,r19
 8003570:	100d883a 	mov	r6,r2
 8003574:	180f883a 	mov	r7,r3
 8003578:	1025883a 	mov	r18,r2
 800357c:	1829883a 	mov	r20,r3
 8003580:	800ba4c0 	call	800ba4c <__ledf2>
 8003584:	10000816 	blt	r2,zero,80035a8 <_dtoa_r+0x968>
 8003588:	8809883a 	mov	r4,r17
 800358c:	980b883a 	mov	r5,r19
 8003590:	900d883a 	mov	r6,r18
 8003594:	a00f883a 	mov	r7,r20
 8003598:	800b8f00 	call	800b8f0 <__eqdf2>
 800359c:	103f541e 	bne	r2,zero,80032f0 <__alt_data_end+0xfc0032f0>
 80035a0:	bdc0004c 	andi	r23,r23,1
 80035a4:	b83f5226 	beq	r23,zero,80032f0 <__alt_data_end+0xfc0032f0>
 80035a8:	b53fffc3 	ldbu	r20,-1(r22)
 80035ac:	b0ffff84 	addi	r3,r22,-2
 80035b0:	01400e44 	movi	r5,57
 80035b4:	d9800717 	ldw	r6,28(sp)
 80035b8:	00000406 	br	80035cc <_dtoa_r+0x98c>
 80035bc:	30824326 	beq	r6,r2,8003ecc <_dtoa_r+0x128c>
 80035c0:	1d000003 	ldbu	r20,0(r3)
 80035c4:	102d883a 	mov	r22,r2
 80035c8:	18ffffc4 	addi	r3,r3,-1
 80035cc:	a1003fcc 	andi	r4,r20,255
 80035d0:	2100201c 	xori	r4,r4,128
 80035d4:	213fe004 	addi	r4,r4,-128
 80035d8:	b0bfffc4 	addi	r2,r22,-1
 80035dc:	217ff726 	beq	r4,r5,80035bc <__alt_data_end+0xfc0035bc>
 80035e0:	a2400044 	addi	r9,r20,1
 80035e4:	12400005 	stb	r9,0(r2)
 80035e8:	003f4106 	br	80032f0 <__alt_data_end+0xfc0032f0>
 80035ec:	d9000c17 	ldw	r4,48(sp)
 80035f0:	2000be26 	beq	r4,zero,80038ec <_dtoa_r+0xcac>
 80035f4:	d9800417 	ldw	r6,16(sp)
 80035f8:	00c00044 	movi	r3,1
 80035fc:	19815e0e 	bge	r3,r6,8003b78 <_dtoa_r+0xf38>
 8003600:	d8800917 	ldw	r2,36(sp)
 8003604:	d8c00a17 	ldw	r3,40(sp)
 8003608:	153fffc4 	addi	r20,r2,-1
 800360c:	1d01f816 	blt	r3,r20,8003df0 <_dtoa_r+0x11b0>
 8003610:	1d29c83a 	sub	r20,r3,r20
 8003614:	d9c00917 	ldw	r7,36(sp)
 8003618:	3802ad16 	blt	r7,zero,80040d0 <_dtoa_r+0x1490>
 800361c:	dcc00817 	ldw	r19,32(sp)
 8003620:	d8800917 	ldw	r2,36(sp)
 8003624:	d8c00817 	ldw	r3,32(sp)
 8003628:	8009883a 	mov	r4,r16
 800362c:	01400044 	movi	r5,1
 8003630:	1887883a 	add	r3,r3,r2
 8003634:	d8c00815 	stw	r3,32(sp)
 8003638:	a8ab883a 	add	r21,r21,r2
 800363c:	800656c0 	call	800656c <__i2b>
 8003640:	1023883a 	mov	r17,r2
 8003644:	98000826 	beq	r19,zero,8003668 <_dtoa_r+0xa28>
 8003648:	0540070e 	bge	zero,r21,8003668 <_dtoa_r+0xa28>
 800364c:	a805883a 	mov	r2,r21
 8003650:	9d411716 	blt	r19,r21,8003ab0 <_dtoa_r+0xe70>
 8003654:	d9000817 	ldw	r4,32(sp)
 8003658:	98a7c83a 	sub	r19,r19,r2
 800365c:	a8abc83a 	sub	r21,r21,r2
 8003660:	2089c83a 	sub	r4,r4,r2
 8003664:	d9000815 	stw	r4,32(sp)
 8003668:	d9800a17 	ldw	r6,40(sp)
 800366c:	0180140e 	bge	zero,r6,80036c0 <_dtoa_r+0xa80>
 8003670:	d9c00c17 	ldw	r7,48(sp)
 8003674:	3801d626 	beq	r7,zero,8003dd0 <_dtoa_r+0x1190>
 8003678:	05000e0e 	bge	zero,r20,80036b4 <_dtoa_r+0xa74>
 800367c:	880b883a 	mov	r5,r17
 8003680:	8009883a 	mov	r4,r16
 8003684:	a00d883a 	mov	r6,r20
 8003688:	80068140 	call	8006814 <__pow5mult>
 800368c:	e00d883a 	mov	r6,fp
 8003690:	8009883a 	mov	r4,r16
 8003694:	100b883a 	mov	r5,r2
 8003698:	1023883a 	mov	r17,r2
 800369c:	80065a80 	call	80065a8 <__multiply>
 80036a0:	102d883a 	mov	r22,r2
 80036a4:	e00b883a 	mov	r5,fp
 80036a8:	8009883a 	mov	r4,r16
 80036ac:	80061e40 	call	80061e4 <_Bfree>
 80036b0:	b039883a 	mov	fp,r22
 80036b4:	d8800a17 	ldw	r2,40(sp)
 80036b8:	150dc83a 	sub	r6,r2,r20
 80036bc:	30011f1e 	bne	r6,zero,8003b3c <_dtoa_r+0xefc>
 80036c0:	8009883a 	mov	r4,r16
 80036c4:	01400044 	movi	r5,1
 80036c8:	800656c0 	call	800656c <__i2b>
 80036cc:	d8c00b17 	ldw	r3,44(sp)
 80036d0:	1029883a 	mov	r20,r2
 80036d4:	00c0050e 	bge	zero,r3,80036ec <_dtoa_r+0xaac>
 80036d8:	8009883a 	mov	r4,r16
 80036dc:	100b883a 	mov	r5,r2
 80036e0:	180d883a 	mov	r6,r3
 80036e4:	80068140 	call	8006814 <__pow5mult>
 80036e8:	1029883a 	mov	r20,r2
 80036ec:	d9000417 	ldw	r4,16(sp)
 80036f0:	00800044 	movi	r2,1
 80036f4:	1100e00e 	bge	r2,r4,8003a78 <_dtoa_r+0xe38>
 80036f8:	0025883a 	mov	r18,zero
 80036fc:	d8800b17 	ldw	r2,44(sp)
 8003700:	10015f1e 	bne	r2,zero,8003c80 <_dtoa_r+0x1040>
 8003704:	00800044 	movi	r2,1
 8003708:	1545883a 	add	r2,r2,r21
 800370c:	108007cc 	andi	r2,r2,31
 8003710:	10007a26 	beq	r2,zero,80038fc <_dtoa_r+0xcbc>
 8003714:	01000804 	movi	r4,32
 8003718:	2089c83a 	sub	r4,r4,r2
 800371c:	00c00104 	movi	r3,4
 8003720:	1902d20e 	bge	r3,r4,800426c <_dtoa_r+0x162c>
 8003724:	00c00704 	movi	r3,28
 8003728:	1885c83a 	sub	r2,r3,r2
 800372c:	d8c00817 	ldw	r3,32(sp)
 8003730:	98a7883a 	add	r19,r19,r2
 8003734:	a8ab883a 	add	r21,r21,r2
 8003738:	1887883a 	add	r3,r3,r2
 800373c:	d8c00815 	stw	r3,32(sp)
 8003740:	d9800817 	ldw	r6,32(sp)
 8003744:	0180040e 	bge	zero,r6,8003758 <_dtoa_r+0xb18>
 8003748:	e00b883a 	mov	r5,fp
 800374c:	8009883a 	mov	r4,r16
 8003750:	800695c0 	call	800695c <__lshift>
 8003754:	1039883a 	mov	fp,r2
 8003758:	0540050e 	bge	zero,r21,8003770 <_dtoa_r+0xb30>
 800375c:	a00b883a 	mov	r5,r20
 8003760:	8009883a 	mov	r4,r16
 8003764:	a80d883a 	mov	r6,r21
 8003768:	800695c0 	call	800695c <__lshift>
 800376c:	1029883a 	mov	r20,r2
 8003770:	d9c00e17 	ldw	r7,56(sp)
 8003774:	3801301e 	bne	r7,zero,8003c38 <_dtoa_r+0xff8>
 8003778:	d9c00917 	ldw	r7,36(sp)
 800377c:	01c1500e 	bge	zero,r7,8003cc0 <_dtoa_r+0x1080>
 8003780:	d8800c17 	ldw	r2,48(sp)
 8003784:	10006b1e 	bne	r2,zero,8003934 <_dtoa_r+0xcf4>
 8003788:	dc800717 	ldw	r18,28(sp)
 800378c:	dcc00917 	ldw	r19,36(sp)
 8003790:	902b883a 	mov	r21,r18
 8003794:	00000206 	br	80037a0 <_dtoa_r+0xb60>
 8003798:	800620c0 	call	800620c <__multadd>
 800379c:	1039883a 	mov	fp,r2
 80037a0:	e009883a 	mov	r4,fp
 80037a4:	a00b883a 	mov	r5,r20
 80037a8:	8002a180 	call	8002a18 <quorem>
 80037ac:	10800c04 	addi	r2,r2,48
 80037b0:	90800005 	stb	r2,0(r18)
 80037b4:	94800044 	addi	r18,r18,1
 80037b8:	9547c83a 	sub	r3,r18,r21
 80037bc:	8009883a 	mov	r4,r16
 80037c0:	e00b883a 	mov	r5,fp
 80037c4:	01800284 	movi	r6,10
 80037c8:	000f883a 	mov	r7,zero
 80037cc:	1cfff216 	blt	r3,r19,8003798 <__alt_data_end+0xfc003798>
 80037d0:	102f883a 	mov	r23,r2
 80037d4:	d8800917 	ldw	r2,36(sp)
 80037d8:	0082410e 	bge	zero,r2,80040e0 <_dtoa_r+0x14a0>
 80037dc:	d9000717 	ldw	r4,28(sp)
 80037e0:	002b883a 	mov	r21,zero
 80037e4:	20ad883a 	add	r22,r4,r2
 80037e8:	e00b883a 	mov	r5,fp
 80037ec:	8009883a 	mov	r4,r16
 80037f0:	01800044 	movi	r6,1
 80037f4:	800695c0 	call	800695c <__lshift>
 80037f8:	1009883a 	mov	r4,r2
 80037fc:	a00b883a 	mov	r5,r20
 8003800:	1039883a 	mov	fp,r2
 8003804:	8006aac0 	call	8006aac <__mcmp>
 8003808:	0080d10e 	bge	zero,r2,8003b50 <_dtoa_r+0xf10>
 800380c:	b13fffc3 	ldbu	r4,-1(r22)
 8003810:	b0ffff84 	addi	r3,r22,-2
 8003814:	01800e44 	movi	r6,57
 8003818:	d9c00717 	ldw	r7,28(sp)
 800381c:	00000406 	br	8003830 <_dtoa_r+0xbf0>
 8003820:	38813c26 	beq	r7,r2,8003d14 <_dtoa_r+0x10d4>
 8003824:	19000003 	ldbu	r4,0(r3)
 8003828:	102d883a 	mov	r22,r2
 800382c:	18ffffc4 	addi	r3,r3,-1
 8003830:	21403fcc 	andi	r5,r4,255
 8003834:	2940201c 	xori	r5,r5,128
 8003838:	297fe004 	addi	r5,r5,-128
 800383c:	b0bfffc4 	addi	r2,r22,-1
 8003840:	29bff726 	beq	r5,r6,8003820 <__alt_data_end+0xfc003820>
 8003844:	21000044 	addi	r4,r4,1
 8003848:	11000005 	stb	r4,0(r2)
 800384c:	8009883a 	mov	r4,r16
 8003850:	a00b883a 	mov	r5,r20
 8003854:	80061e40 	call	80061e4 <_Bfree>
 8003858:	883ea526 	beq	r17,zero,80032f0 <__alt_data_end+0xfc0032f0>
 800385c:	a8000426 	beq	r21,zero,8003870 <_dtoa_r+0xc30>
 8003860:	ac400326 	beq	r21,r17,8003870 <_dtoa_r+0xc30>
 8003864:	8009883a 	mov	r4,r16
 8003868:	a80b883a 	mov	r5,r21
 800386c:	80061e40 	call	80061e4 <_Bfree>
 8003870:	8009883a 	mov	r4,r16
 8003874:	880b883a 	mov	r5,r17
 8003878:	80061e40 	call	80061e4 <_Bfree>
 800387c:	003e9c06 	br	80032f0 <__alt_data_end+0xfc0032f0>
 8003880:	01c00044 	movi	r7,1
 8003884:	d9c00e15 	stw	r7,56(sp)
 8003888:	003d9906 	br	8002ef0 <__alt_data_end+0xfc002ef0>
 800388c:	d8c00817 	ldw	r3,32(sp)
 8003890:	d9000617 	ldw	r4,24(sp)
 8003894:	d8000b15 	stw	zero,44(sp)
 8003898:	1907c83a 	sub	r3,r3,r4
 800389c:	010dc83a 	sub	r6,zero,r4
 80038a0:	d8c00815 	stw	r3,32(sp)
 80038a4:	d9800a15 	stw	r6,40(sp)
 80038a8:	003d9a06 	br	8002f14 <__alt_data_end+0xfc002f14>
 80038ac:	056bc83a 	sub	r21,zero,r21
 80038b0:	dd400815 	stw	r21,32(sp)
 80038b4:	002b883a 	mov	r21,zero
 80038b8:	003d9106 	br	8002f00 <__alt_data_end+0xfc002f00>
 80038bc:	d9000617 	ldw	r4,24(sp)
 80038c0:	800cc400 	call	800cc40 <__floatsidf>
 80038c4:	1009883a 	mov	r4,r2
 80038c8:	180b883a 	mov	r5,r3
 80038cc:	980d883a 	mov	r6,r19
 80038d0:	880f883a 	mov	r7,r17
 80038d4:	800b8f00 	call	800b8f0 <__eqdf2>
 80038d8:	103d7426 	beq	r2,zero,8002eac <__alt_data_end+0xfc002eac>
 80038dc:	d8c00617 	ldw	r3,24(sp)
 80038e0:	18ffffc4 	addi	r3,r3,-1
 80038e4:	d8c00615 	stw	r3,24(sp)
 80038e8:	003d7006 	br	8002eac <__alt_data_end+0xfc002eac>
 80038ec:	dd000a17 	ldw	r20,40(sp)
 80038f0:	dcc00817 	ldw	r19,32(sp)
 80038f4:	0023883a 	mov	r17,zero
 80038f8:	003f5206 	br	8003644 <__alt_data_end+0xfc003644>
 80038fc:	00800704 	movi	r2,28
 8003900:	d9000817 	ldw	r4,32(sp)
 8003904:	98a7883a 	add	r19,r19,r2
 8003908:	a8ab883a 	add	r21,r21,r2
 800390c:	2089883a 	add	r4,r4,r2
 8003910:	d9000815 	stw	r4,32(sp)
 8003914:	003f8a06 	br	8003740 <__alt_data_end+0xfc003740>
 8003918:	d9c00317 	ldw	r7,12(sp)
 800391c:	013efb84 	movi	r4,-1042
 8003920:	2509c83a 	sub	r4,r4,r20
 8003924:	3908983a 	sll	r4,r7,r4
 8003928:	003d2c06 	br	8002ddc <__alt_data_end+0xfc002ddc>
 800392c:	d8000e15 	stw	zero,56(sp)
 8003930:	003d6f06 	br	8002ef0 <__alt_data_end+0xfc002ef0>
 8003934:	04c0050e 	bge	zero,r19,800394c <_dtoa_r+0xd0c>
 8003938:	880b883a 	mov	r5,r17
 800393c:	8009883a 	mov	r4,r16
 8003940:	980d883a 	mov	r6,r19
 8003944:	800695c0 	call	800695c <__lshift>
 8003948:	1023883a 	mov	r17,r2
 800394c:	9001681e 	bne	r18,zero,8003ef0 <_dtoa_r+0x12b0>
 8003950:	8827883a 	mov	r19,r17
 8003954:	d8c00717 	ldw	r3,28(sp)
 8003958:	d9000917 	ldw	r4,36(sp)
 800395c:	1dffffc4 	addi	r23,r3,-1
 8003960:	1825883a 	mov	r18,r3
 8003964:	d8c00317 	ldw	r3,12(sp)
 8003968:	b92f883a 	add	r23,r23,r4
 800396c:	ddc00515 	stw	r23,20(sp)
 8003970:	18c0004c 	andi	r3,r3,1
 8003974:	d8c00315 	stw	r3,12(sp)
 8003978:	e009883a 	mov	r4,fp
 800397c:	a00b883a 	mov	r5,r20
 8003980:	8002a180 	call	8002a18 <quorem>
 8003984:	e009883a 	mov	r4,fp
 8003988:	880b883a 	mov	r5,r17
 800398c:	102d883a 	mov	r22,r2
 8003990:	8006aac0 	call	8006aac <__mcmp>
 8003994:	8009883a 	mov	r4,r16
 8003998:	a00b883a 	mov	r5,r20
 800399c:	980d883a 	mov	r6,r19
 80039a0:	102b883a 	mov	r21,r2
 80039a4:	8006b0c0 	call	8006b0c <__mdiff>
 80039a8:	1007883a 	mov	r3,r2
 80039ac:	10800317 	ldw	r2,12(r2)
 80039b0:	b5c00c04 	addi	r23,r22,48
 80039b4:	10009b1e 	bne	r2,zero,8003c24 <_dtoa_r+0xfe4>
 80039b8:	180b883a 	mov	r5,r3
 80039bc:	e009883a 	mov	r4,fp
 80039c0:	d8c01515 	stw	r3,84(sp)
 80039c4:	8006aac0 	call	8006aac <__mcmp>
 80039c8:	d8c01517 	ldw	r3,84(sp)
 80039cc:	8009883a 	mov	r4,r16
 80039d0:	d8801515 	stw	r2,84(sp)
 80039d4:	180b883a 	mov	r5,r3
 80039d8:	80061e40 	call	80061e4 <_Bfree>
 80039dc:	d8801517 	ldw	r2,84(sp)
 80039e0:	1000041e 	bne	r2,zero,80039f4 <_dtoa_r+0xdb4>
 80039e4:	d9000417 	ldw	r4,16(sp)
 80039e8:	2000021e 	bne	r4,zero,80039f4 <_dtoa_r+0xdb4>
 80039ec:	d8c00317 	ldw	r3,12(sp)
 80039f0:	18007926 	beq	r3,zero,8003bd8 <_dtoa_r+0xf98>
 80039f4:	a8006616 	blt	r21,zero,8003b90 <_dtoa_r+0xf50>
 80039f8:	a800041e 	bne	r21,zero,8003a0c <_dtoa_r+0xdcc>
 80039fc:	d9000417 	ldw	r4,16(sp)
 8003a00:	2000021e 	bne	r4,zero,8003a0c <_dtoa_r+0xdcc>
 8003a04:	d8c00317 	ldw	r3,12(sp)
 8003a08:	18006126 	beq	r3,zero,8003b90 <_dtoa_r+0xf50>
 8003a0c:	00814916 	blt	zero,r2,8003f34 <_dtoa_r+0x12f4>
 8003a10:	d8c00517 	ldw	r3,20(sp)
 8003a14:	95400044 	addi	r21,r18,1
 8003a18:	95c00005 	stb	r23,0(r18)
 8003a1c:	a82d883a 	mov	r22,r21
 8003a20:	90c14c26 	beq	r18,r3,8003f54 <_dtoa_r+0x1314>
 8003a24:	e00b883a 	mov	r5,fp
 8003a28:	8009883a 	mov	r4,r16
 8003a2c:	01800284 	movi	r6,10
 8003a30:	000f883a 	mov	r7,zero
 8003a34:	800620c0 	call	800620c <__multadd>
 8003a38:	1039883a 	mov	fp,r2
 8003a3c:	8cc07026 	beq	r17,r19,8003c00 <_dtoa_r+0xfc0>
 8003a40:	880b883a 	mov	r5,r17
 8003a44:	01800284 	movi	r6,10
 8003a48:	000f883a 	mov	r7,zero
 8003a4c:	8009883a 	mov	r4,r16
 8003a50:	800620c0 	call	800620c <__multadd>
 8003a54:	980b883a 	mov	r5,r19
 8003a58:	8009883a 	mov	r4,r16
 8003a5c:	01800284 	movi	r6,10
 8003a60:	000f883a 	mov	r7,zero
 8003a64:	1023883a 	mov	r17,r2
 8003a68:	800620c0 	call	800620c <__multadd>
 8003a6c:	1027883a 	mov	r19,r2
 8003a70:	a825883a 	mov	r18,r21
 8003a74:	003fc006 	br	8003978 <__alt_data_end+0xfc003978>
 8003a78:	d9800317 	ldw	r6,12(sp)
 8003a7c:	303f1e1e 	bne	r6,zero,80036f8 <__alt_data_end+0xfc0036f8>
 8003a80:	00c00434 	movhi	r3,16
 8003a84:	18ffffc4 	addi	r3,r3,-1
 8003a88:	90c6703a 	and	r3,r18,r3
 8003a8c:	183f1a1e 	bne	r3,zero,80036f8 <__alt_data_end+0xfc0036f8>
 8003a90:	949ffc2c 	andhi	r18,r18,32752
 8003a94:	903f1826 	beq	r18,zero,80036f8 <__alt_data_end+0xfc0036f8>
 8003a98:	d9c00817 	ldw	r7,32(sp)
 8003a9c:	a8ab883a 	add	r21,r21,r2
 8003aa0:	1025883a 	mov	r18,r2
 8003aa4:	388f883a 	add	r7,r7,r2
 8003aa8:	d9c00815 	stw	r7,32(sp)
 8003aac:	003f1306 	br	80036fc <__alt_data_end+0xfc0036fc>
 8003ab0:	9805883a 	mov	r2,r19
 8003ab4:	003ee706 	br	8003654 <__alt_data_end+0xfc003654>
 8003ab8:	01800044 	movi	r6,1
 8003abc:	d9800c15 	stw	r6,48(sp)
 8003ac0:	d8802117 	ldw	r2,132(sp)
 8003ac4:	0080da0e 	bge	zero,r2,8003e30 <_dtoa_r+0x11f0>
 8003ac8:	100d883a 	mov	r6,r2
 8003acc:	d8800d15 	stw	r2,52(sp)
 8003ad0:	d8800915 	stw	r2,36(sp)
 8003ad4:	003d2a06 	br	8002f80 <__alt_data_end+0xfc002f80>
 8003ad8:	d8800917 	ldw	r2,36(sp)
 8003adc:	00be4016 	blt	zero,r2,80033e0 <__alt_data_end+0xfc0033e0>
 8003ae0:	1000b81e 	bne	r2,zero,8003dc4 <_dtoa_r+0x1184>
 8003ae4:	8809883a 	mov	r4,r17
 8003ae8:	980b883a 	mov	r5,r19
 8003aec:	000d883a 	mov	r6,zero
 8003af0:	01d00534 	movhi	r7,16404
 8003af4:	800bb380 	call	800bb38 <__muldf3>
 8003af8:	d9800317 	ldw	r6,12(sp)
 8003afc:	1009883a 	mov	r4,r2
 8003b00:	180b883a 	mov	r5,r3
 8003b04:	900f883a 	mov	r7,r18
 8003b08:	800b9740 	call	800b974 <__gedf2>
 8003b0c:	0029883a 	mov	r20,zero
 8003b10:	0023883a 	mov	r17,zero
 8003b14:	10007716 	blt	r2,zero,8003cf4 <_dtoa_r+0x10b4>
 8003b18:	d9002117 	ldw	r4,132(sp)
 8003b1c:	dd800717 	ldw	r22,28(sp)
 8003b20:	0108303a 	nor	r4,zero,r4
 8003b24:	d9000615 	stw	r4,24(sp)
 8003b28:	8009883a 	mov	r4,r16
 8003b2c:	a00b883a 	mov	r5,r20
 8003b30:	80061e40 	call	80061e4 <_Bfree>
 8003b34:	883f4e1e 	bne	r17,zero,8003870 <__alt_data_end+0xfc003870>
 8003b38:	003ded06 	br	80032f0 <__alt_data_end+0xfc0032f0>
 8003b3c:	e00b883a 	mov	r5,fp
 8003b40:	8009883a 	mov	r4,r16
 8003b44:	80068140 	call	8006814 <__pow5mult>
 8003b48:	1039883a 	mov	fp,r2
 8003b4c:	003edc06 	br	80036c0 <__alt_data_end+0xfc0036c0>
 8003b50:	1000021e 	bne	r2,zero,8003b5c <_dtoa_r+0xf1c>
 8003b54:	ba40004c 	andi	r9,r23,1
 8003b58:	483f2c1e 	bne	r9,zero,800380c <__alt_data_end+0xfc00380c>
 8003b5c:	01000c04 	movi	r4,48
 8003b60:	00000106 	br	8003b68 <_dtoa_r+0xf28>
 8003b64:	102d883a 	mov	r22,r2
 8003b68:	b0bfffc4 	addi	r2,r22,-1
 8003b6c:	10c00007 	ldb	r3,0(r2)
 8003b70:	193ffc26 	beq	r3,r4,8003b64 <__alt_data_end+0xfc003b64>
 8003b74:	003f3506 	br	800384c <__alt_data_end+0xfc00384c>
 8003b78:	d9c00f17 	ldw	r7,60(sp)
 8003b7c:	38015a26 	beq	r7,zero,80040e8 <_dtoa_r+0x14a8>
 8003b80:	10810cc4 	addi	r2,r2,1075
 8003b84:	dd000a17 	ldw	r20,40(sp)
 8003b88:	dcc00817 	ldw	r19,32(sp)
 8003b8c:	003ea506 	br	8003624 <__alt_data_end+0xfc003624>
 8003b90:	00800c0e 	bge	zero,r2,8003bc4 <_dtoa_r+0xf84>
 8003b94:	e00b883a 	mov	r5,fp
 8003b98:	8009883a 	mov	r4,r16
 8003b9c:	01800044 	movi	r6,1
 8003ba0:	800695c0 	call	800695c <__lshift>
 8003ba4:	1009883a 	mov	r4,r2
 8003ba8:	a00b883a 	mov	r5,r20
 8003bac:	1039883a 	mov	fp,r2
 8003bb0:	8006aac0 	call	8006aac <__mcmp>
 8003bb4:	0081930e 	bge	zero,r2,8004204 <_dtoa_r+0x15c4>
 8003bb8:	00800e44 	movi	r2,57
 8003bbc:	b8800a26 	beq	r23,r2,8003be8 <_dtoa_r+0xfa8>
 8003bc0:	b5c00c44 	addi	r23,r22,49
 8003bc4:	882b883a 	mov	r21,r17
 8003bc8:	95800044 	addi	r22,r18,1
 8003bcc:	95c00005 	stb	r23,0(r18)
 8003bd0:	9823883a 	mov	r17,r19
 8003bd4:	003f1d06 	br	800384c <__alt_data_end+0xfc00384c>
 8003bd8:	00800e44 	movi	r2,57
 8003bdc:	b8800226 	beq	r23,r2,8003be8 <_dtoa_r+0xfa8>
 8003be0:	057ff716 	blt	zero,r21,8003bc0 <__alt_data_end+0xfc003bc0>
 8003be4:	003ff706 	br	8003bc4 <__alt_data_end+0xfc003bc4>
 8003be8:	01000e44 	movi	r4,57
 8003bec:	882b883a 	mov	r21,r17
 8003bf0:	95800044 	addi	r22,r18,1
 8003bf4:	91000005 	stb	r4,0(r18)
 8003bf8:	9823883a 	mov	r17,r19
 8003bfc:	003f0406 	br	8003810 <__alt_data_end+0xfc003810>
 8003c00:	880b883a 	mov	r5,r17
 8003c04:	8009883a 	mov	r4,r16
 8003c08:	01800284 	movi	r6,10
 8003c0c:	000f883a 	mov	r7,zero
 8003c10:	800620c0 	call	800620c <__multadd>
 8003c14:	1023883a 	mov	r17,r2
 8003c18:	1027883a 	mov	r19,r2
 8003c1c:	a825883a 	mov	r18,r21
 8003c20:	003f5506 	br	8003978 <__alt_data_end+0xfc003978>
 8003c24:	8009883a 	mov	r4,r16
 8003c28:	180b883a 	mov	r5,r3
 8003c2c:	80061e40 	call	80061e4 <_Bfree>
 8003c30:	00800044 	movi	r2,1
 8003c34:	003f6f06 	br	80039f4 <__alt_data_end+0xfc0039f4>
 8003c38:	e009883a 	mov	r4,fp
 8003c3c:	a00b883a 	mov	r5,r20
 8003c40:	8006aac0 	call	8006aac <__mcmp>
 8003c44:	103ecc0e 	bge	r2,zero,8003778 <__alt_data_end+0xfc003778>
 8003c48:	e00b883a 	mov	r5,fp
 8003c4c:	8009883a 	mov	r4,r16
 8003c50:	01800284 	movi	r6,10
 8003c54:	000f883a 	mov	r7,zero
 8003c58:	800620c0 	call	800620c <__multadd>
 8003c5c:	1039883a 	mov	fp,r2
 8003c60:	d8800617 	ldw	r2,24(sp)
 8003c64:	d8c00c17 	ldw	r3,48(sp)
 8003c68:	10bfffc4 	addi	r2,r2,-1
 8003c6c:	d8800615 	stw	r2,24(sp)
 8003c70:	1801681e 	bne	r3,zero,8004214 <_dtoa_r+0x15d4>
 8003c74:	d9800d17 	ldw	r6,52(sp)
 8003c78:	d9800915 	stw	r6,36(sp)
 8003c7c:	003ebe06 	br	8003778 <__alt_data_end+0xfc003778>
 8003c80:	a0800417 	ldw	r2,16(r20)
 8003c84:	10800104 	addi	r2,r2,4
 8003c88:	1085883a 	add	r2,r2,r2
 8003c8c:	1085883a 	add	r2,r2,r2
 8003c90:	a085883a 	add	r2,r20,r2
 8003c94:	11000017 	ldw	r4,0(r2)
 8003c98:	80064540 	call	8006454 <__hi0bits>
 8003c9c:	00c00804 	movi	r3,32
 8003ca0:	1885c83a 	sub	r2,r3,r2
 8003ca4:	003e9806 	br	8003708 <__alt_data_end+0xfc003708>
 8003ca8:	d8800717 	ldw	r2,28(sp)
 8003cac:	003c1306 	br	8002cfc <__alt_data_end+0xfc002cfc>
 8003cb0:	00800084 	movi	r2,2
 8003cb4:	18bdb11e 	bne	r3,r2,800337c <__alt_data_end+0xfc00337c>
 8003cb8:	d8000c15 	stw	zero,48(sp)
 8003cbc:	003f8006 	br	8003ac0 <__alt_data_end+0xfc003ac0>
 8003cc0:	d8c00417 	ldw	r3,16(sp)
 8003cc4:	00800084 	movi	r2,2
 8003cc8:	10fead0e 	bge	r2,r3,8003780 <__alt_data_end+0xfc003780>
 8003ccc:	383f921e 	bne	r7,zero,8003b18 <__alt_data_end+0xfc003b18>
 8003cd0:	a00b883a 	mov	r5,r20
 8003cd4:	8009883a 	mov	r4,r16
 8003cd8:	01800144 	movi	r6,5
 8003cdc:	800620c0 	call	800620c <__multadd>
 8003ce0:	e009883a 	mov	r4,fp
 8003ce4:	100b883a 	mov	r5,r2
 8003ce8:	1029883a 	mov	r20,r2
 8003cec:	8006aac0 	call	8006aac <__mcmp>
 8003cf0:	00bf890e 	bge	zero,r2,8003b18 <__alt_data_end+0xfc003b18>
 8003cf4:	d9c00617 	ldw	r7,24(sp)
 8003cf8:	d9800717 	ldw	r6,28(sp)
 8003cfc:	00800c44 	movi	r2,49
 8003d00:	39c00044 	addi	r7,r7,1
 8003d04:	35800044 	addi	r22,r6,1
 8003d08:	30800005 	stb	r2,0(r6)
 8003d0c:	d9c00615 	stw	r7,24(sp)
 8003d10:	003f8506 	br	8003b28 <__alt_data_end+0xfc003b28>
 8003d14:	d9800617 	ldw	r6,24(sp)
 8003d18:	d9c00717 	ldw	r7,28(sp)
 8003d1c:	00800c44 	movi	r2,49
 8003d20:	31800044 	addi	r6,r6,1
 8003d24:	d9800615 	stw	r6,24(sp)
 8003d28:	38800005 	stb	r2,0(r7)
 8003d2c:	003ec706 	br	800384c <__alt_data_end+0xfc00384c>
 8003d30:	df000417 	ldw	fp,16(sp)
 8003d34:	dc000317 	ldw	r16,12(sp)
 8003d38:	003d6d06 	br	80032f0 <__alt_data_end+0xfc0032f0>
 8003d3c:	8809883a 	mov	r4,r17
 8003d40:	800cc400 	call	800cc40 <__floatsidf>
 8003d44:	9809883a 	mov	r4,r19
 8003d48:	a00b883a 	mov	r5,r20
 8003d4c:	100d883a 	mov	r6,r2
 8003d50:	180f883a 	mov	r7,r3
 8003d54:	800bb380 	call	800bb38 <__muldf3>
 8003d58:	1009883a 	mov	r4,r2
 8003d5c:	180b883a 	mov	r5,r3
 8003d60:	000d883a 	mov	r6,zero
 8003d64:	01d00734 	movhi	r7,16412
 8003d68:	800a6d80 	call	800a6d8 <__adddf3>
 8003d6c:	05bf3034 	movhi	r22,64704
 8003d70:	1023883a 	mov	r17,r2
 8003d74:	1daf883a 	add	r23,r3,r22
 8003d78:	9809883a 	mov	r4,r19
 8003d7c:	a00b883a 	mov	r5,r20
 8003d80:	000d883a 	mov	r6,zero
 8003d84:	01d00534 	movhi	r7,16404
 8003d88:	800c3380 	call	800c338 <__subdf3>
 8003d8c:	1009883a 	mov	r4,r2
 8003d90:	180b883a 	mov	r5,r3
 8003d94:	880d883a 	mov	r6,r17
 8003d98:	b80f883a 	mov	r7,r23
 8003d9c:	1027883a 	mov	r19,r2
 8003da0:	1829883a 	mov	r20,r3
 8003da4:	800b9740 	call	800b974 <__gedf2>
 8003da8:	00806d16 	blt	zero,r2,8003f60 <_dtoa_r+0x1320>
 8003dac:	b9e0003c 	xorhi	r7,r23,32768
 8003db0:	9809883a 	mov	r4,r19
 8003db4:	a00b883a 	mov	r5,r20
 8003db8:	880d883a 	mov	r6,r17
 8003dbc:	800ba4c0 	call	800ba4c <__ledf2>
 8003dc0:	103d7a0e 	bge	r2,zero,80033ac <__alt_data_end+0xfc0033ac>
 8003dc4:	0029883a 	mov	r20,zero
 8003dc8:	0023883a 	mov	r17,zero
 8003dcc:	003f5206 	br	8003b18 <__alt_data_end+0xfc003b18>
 8003dd0:	d9800a17 	ldw	r6,40(sp)
 8003dd4:	e00b883a 	mov	r5,fp
 8003dd8:	8009883a 	mov	r4,r16
 8003ddc:	80068140 	call	8006814 <__pow5mult>
 8003de0:	1039883a 	mov	fp,r2
 8003de4:	003e3606 	br	80036c0 <__alt_data_end+0xfc0036c0>
 8003de8:	d8000c15 	stw	zero,48(sp)
 8003dec:	003c5c06 	br	8002f60 <__alt_data_end+0xfc002f60>
 8003df0:	d9000a17 	ldw	r4,40(sp)
 8003df4:	d9800b17 	ldw	r6,44(sp)
 8003df8:	dd000a15 	stw	r20,40(sp)
 8003dfc:	a105c83a 	sub	r2,r20,r4
 8003e00:	308d883a 	add	r6,r6,r2
 8003e04:	d9800b15 	stw	r6,44(sp)
 8003e08:	0029883a 	mov	r20,zero
 8003e0c:	003e0106 	br	8003614 <__alt_data_end+0xfc003614>
 8003e10:	dcc00317 	ldw	r19,12(sp)
 8003e14:	9029883a 	mov	r20,r18
 8003e18:	04400084 	movi	r17,2
 8003e1c:	003c8606 	br	8003038 <__alt_data_end+0xfc003038>
 8003e20:	3023883a 	mov	r17,r6
 8003e24:	80001115 	stw	zero,68(r16)
 8003e28:	000b883a 	mov	r5,zero
 8003e2c:	003c6006 	br	8002fb0 <__alt_data_end+0xfc002fb0>
 8003e30:	04400044 	movi	r17,1
 8003e34:	dc400d15 	stw	r17,52(sp)
 8003e38:	dc400915 	stw	r17,36(sp)
 8003e3c:	dc402115 	stw	r17,132(sp)
 8003e40:	003ff806 	br	8003e24 <__alt_data_end+0xfc003e24>
 8003e44:	d8800617 	ldw	r2,24(sp)
 8003e48:	00adc83a 	sub	r22,zero,r2
 8003e4c:	b000ac26 	beq	r22,zero,8004100 <_dtoa_r+0x14c0>
 8003e50:	b08003cc 	andi	r2,r22,15
 8003e54:	100490fa 	slli	r2,r2,3
 8003e58:	00c20074 	movhi	r3,2049
 8003e5c:	18ff0304 	addi	r3,r3,-1012
 8003e60:	d9000317 	ldw	r4,12(sp)
 8003e64:	1885883a 	add	r2,r3,r2
 8003e68:	11800017 	ldw	r6,0(r2)
 8003e6c:	11c00117 	ldw	r7,4(r2)
 8003e70:	b02dd13a 	srai	r22,r22,4
 8003e74:	900b883a 	mov	r5,r18
 8003e78:	800bb380 	call	800bb38 <__muldf3>
 8003e7c:	1027883a 	mov	r19,r2
 8003e80:	1829883a 	mov	r20,r3
 8003e84:	b000ec26 	beq	r22,zero,8004238 <_dtoa_r+0x15f8>
 8003e88:	05c20074 	movhi	r23,2049
 8003e8c:	bdfef904 	addi	r23,r23,-1052
 8003e90:	04400084 	movi	r17,2
 8003e94:	b180004c 	andi	r6,r22,1
 8003e98:	1009883a 	mov	r4,r2
 8003e9c:	b02dd07a 	srai	r22,r22,1
 8003ea0:	180b883a 	mov	r5,r3
 8003ea4:	30000426 	beq	r6,zero,8003eb8 <_dtoa_r+0x1278>
 8003ea8:	b9800017 	ldw	r6,0(r23)
 8003eac:	b9c00117 	ldw	r7,4(r23)
 8003eb0:	8c400044 	addi	r17,r17,1
 8003eb4:	800bb380 	call	800bb38 <__muldf3>
 8003eb8:	bdc00204 	addi	r23,r23,8
 8003ebc:	b03ff51e 	bne	r22,zero,8003e94 <__alt_data_end+0xfc003e94>
 8003ec0:	1027883a 	mov	r19,r2
 8003ec4:	1829883a 	mov	r20,r3
 8003ec8:	003c7406 	br	800309c <__alt_data_end+0xfc00309c>
 8003ecc:	d9800617 	ldw	r6,24(sp)
 8003ed0:	d9c00717 	ldw	r7,28(sp)
 8003ed4:	00c00c04 	movi	r3,48
 8003ed8:	31800044 	addi	r6,r6,1
 8003edc:	38c00005 	stb	r3,0(r7)
 8003ee0:	02400c44 	movi	r9,49
 8003ee4:	d9800615 	stw	r6,24(sp)
 8003ee8:	12400005 	stb	r9,0(r2)
 8003eec:	003d0006 	br	80032f0 <__alt_data_end+0xfc0032f0>
 8003ef0:	89400117 	ldw	r5,4(r17)
 8003ef4:	8009883a 	mov	r4,r16
 8003ef8:	800613c0 	call	800613c <_Balloc>
 8003efc:	89800417 	ldw	r6,16(r17)
 8003f00:	11000304 	addi	r4,r2,12
 8003f04:	89400304 	addi	r5,r17,12
 8003f08:	31800084 	addi	r6,r6,2
 8003f0c:	318d883a 	add	r6,r6,r6
 8003f10:	318d883a 	add	r6,r6,r6
 8003f14:	1025883a 	mov	r18,r2
 8003f18:	8005de00 	call	8005de0 <memcpy>
 8003f1c:	8009883a 	mov	r4,r16
 8003f20:	900b883a 	mov	r5,r18
 8003f24:	01800044 	movi	r6,1
 8003f28:	800695c0 	call	800695c <__lshift>
 8003f2c:	1027883a 	mov	r19,r2
 8003f30:	003e8806 	br	8003954 <__alt_data_end+0xfc003954>
 8003f34:	00800e44 	movi	r2,57
 8003f38:	b8bf2b26 	beq	r23,r2,8003be8 <__alt_data_end+0xfc003be8>
 8003f3c:	ba400044 	addi	r9,r23,1
 8003f40:	882b883a 	mov	r21,r17
 8003f44:	95800044 	addi	r22,r18,1
 8003f48:	92400005 	stb	r9,0(r18)
 8003f4c:	9823883a 	mov	r17,r19
 8003f50:	003e3e06 	br	800384c <__alt_data_end+0xfc00384c>
 8003f54:	882b883a 	mov	r21,r17
 8003f58:	9823883a 	mov	r17,r19
 8003f5c:	003e2206 	br	80037e8 <__alt_data_end+0xfc0037e8>
 8003f60:	0029883a 	mov	r20,zero
 8003f64:	0023883a 	mov	r17,zero
 8003f68:	003f6206 	br	8003cf4 <__alt_data_end+0xfc003cf4>
 8003f6c:	59bfffc4 	addi	r6,r11,-1
 8003f70:	300490fa 	slli	r2,r6,3
 8003f74:	00c20074 	movhi	r3,2049
 8003f78:	18ff0304 	addi	r3,r3,-1012
 8003f7c:	b80f883a 	mov	r7,r23
 8003f80:	1885883a 	add	r2,r3,r2
 8003f84:	11000017 	ldw	r4,0(r2)
 8003f88:	11400117 	ldw	r5,4(r2)
 8003f8c:	d8800717 	ldw	r2,28(sp)
 8003f90:	d9801015 	stw	r6,64(sp)
 8003f94:	880d883a 	mov	r6,r17
 8003f98:	dac01615 	stw	r11,88(sp)
 8003f9c:	15800044 	addi	r22,r2,1
 8003fa0:	800bb380 	call	800bb38 <__muldf3>
 8003fa4:	a00b883a 	mov	r5,r20
 8003fa8:	9809883a 	mov	r4,r19
 8003fac:	d8c01215 	stw	r3,72(sp)
 8003fb0:	d8801115 	stw	r2,68(sp)
 8003fb4:	800cbc00 	call	800cbc0 <__fixdfsi>
 8003fb8:	1009883a 	mov	r4,r2
 8003fbc:	1023883a 	mov	r17,r2
 8003fc0:	800cc400 	call	800cc40 <__floatsidf>
 8003fc4:	9809883a 	mov	r4,r19
 8003fc8:	a00b883a 	mov	r5,r20
 8003fcc:	100d883a 	mov	r6,r2
 8003fd0:	180f883a 	mov	r7,r3
 8003fd4:	800c3380 	call	800c338 <__subdf3>
 8003fd8:	1815883a 	mov	r10,r3
 8003fdc:	d8c00717 	ldw	r3,28(sp)
 8003fe0:	8c400c04 	addi	r17,r17,48
 8003fe4:	102f883a 	mov	r23,r2
 8003fe8:	1c400005 	stb	r17,0(r3)
 8003fec:	dac01617 	ldw	r11,88(sp)
 8003ff0:	00800044 	movi	r2,1
 8003ff4:	58802426 	beq	r11,r2,8004088 <_dtoa_r+0x1448>
 8003ff8:	d9800717 	ldw	r6,28(sp)
 8003ffc:	dc001415 	stw	r16,80(sp)
 8004000:	b805883a 	mov	r2,r23
 8004004:	32d7883a 	add	r11,r6,r11
 8004008:	b027883a 	mov	r19,r22
 800400c:	5821883a 	mov	r16,r11
 8004010:	5007883a 	mov	r3,r10
 8004014:	902f883a 	mov	r23,r18
 8004018:	000d883a 	mov	r6,zero
 800401c:	01d00934 	movhi	r7,16420
 8004020:	1009883a 	mov	r4,r2
 8004024:	180b883a 	mov	r5,r3
 8004028:	800bb380 	call	800bb38 <__muldf3>
 800402c:	180b883a 	mov	r5,r3
 8004030:	1009883a 	mov	r4,r2
 8004034:	1829883a 	mov	r20,r3
 8004038:	1025883a 	mov	r18,r2
 800403c:	800cbc00 	call	800cbc0 <__fixdfsi>
 8004040:	1009883a 	mov	r4,r2
 8004044:	1023883a 	mov	r17,r2
 8004048:	800cc400 	call	800cc40 <__floatsidf>
 800404c:	9009883a 	mov	r4,r18
 8004050:	a00b883a 	mov	r5,r20
 8004054:	100d883a 	mov	r6,r2
 8004058:	180f883a 	mov	r7,r3
 800405c:	8c400c04 	addi	r17,r17,48
 8004060:	800c3380 	call	800c338 <__subdf3>
 8004064:	9cc00044 	addi	r19,r19,1
 8004068:	9c7fffc5 	stb	r17,-1(r19)
 800406c:	9c3fea1e 	bne	r19,r16,8004018 <__alt_data_end+0xfc004018>
 8004070:	d9c01017 	ldw	r7,64(sp)
 8004074:	dc001417 	ldw	r16,80(sp)
 8004078:	b825883a 	mov	r18,r23
 800407c:	1815883a 	mov	r10,r3
 8004080:	102f883a 	mov	r23,r2
 8004084:	b1ed883a 	add	r22,r22,r7
 8004088:	d9001117 	ldw	r4,68(sp)
 800408c:	d9401217 	ldw	r5,72(sp)
 8004090:	000d883a 	mov	r6,zero
 8004094:	01cff834 	movhi	r7,16352
 8004098:	da801615 	stw	r10,88(sp)
 800409c:	800a6d80 	call	800a6d8 <__adddf3>
 80040a0:	da801617 	ldw	r10,88(sp)
 80040a4:	1009883a 	mov	r4,r2
 80040a8:	180b883a 	mov	r5,r3
 80040ac:	500f883a 	mov	r7,r10
 80040b0:	b80d883a 	mov	r6,r23
 80040b4:	800ba4c0 	call	800ba4c <__ledf2>
 80040b8:	da801617 	ldw	r10,88(sp)
 80040bc:	1000330e 	bge	r2,zero,800418c <_dtoa_r+0x154c>
 80040c0:	d9001317 	ldw	r4,76(sp)
 80040c4:	b53fffc3 	ldbu	r20,-1(r22)
 80040c8:	d9000615 	stw	r4,24(sp)
 80040cc:	003d3706 	br	80035ac <__alt_data_end+0xfc0035ac>
 80040d0:	d8800817 	ldw	r2,32(sp)
 80040d4:	11e7c83a 	sub	r19,r2,r7
 80040d8:	0005883a 	mov	r2,zero
 80040dc:	003d5106 	br	8003624 <__alt_data_end+0xfc003624>
 80040e0:	00800044 	movi	r2,1
 80040e4:	003dbd06 	br	80037dc <__alt_data_end+0xfc0037dc>
 80040e8:	d8800217 	ldw	r2,8(sp)
 80040ec:	00c00d84 	movi	r3,54
 80040f0:	dd000a17 	ldw	r20,40(sp)
 80040f4:	1885c83a 	sub	r2,r3,r2
 80040f8:	dcc00817 	ldw	r19,32(sp)
 80040fc:	003d4906 	br	8003624 <__alt_data_end+0xfc003624>
 8004100:	dcc00317 	ldw	r19,12(sp)
 8004104:	9029883a 	mov	r20,r18
 8004108:	04400084 	movi	r17,2
 800410c:	003be306 	br	800309c <__alt_data_end+0xfc00309c>
 8004110:	d9000917 	ldw	r4,36(sp)
 8004114:	203f0926 	beq	r4,zero,8003d3c <__alt_data_end+0xfc003d3c>
 8004118:	d9800d17 	ldw	r6,52(sp)
 800411c:	01bca30e 	bge	zero,r6,80033ac <__alt_data_end+0xfc0033ac>
 8004120:	a00b883a 	mov	r5,r20
 8004124:	9809883a 	mov	r4,r19
 8004128:	000d883a 	mov	r6,zero
 800412c:	01d00934 	movhi	r7,16420
 8004130:	800bb380 	call	800bb38 <__muldf3>
 8004134:	89000044 	addi	r4,r17,1
 8004138:	1027883a 	mov	r19,r2
 800413c:	1829883a 	mov	r20,r3
 8004140:	800cc400 	call	800cc40 <__floatsidf>
 8004144:	9809883a 	mov	r4,r19
 8004148:	a00b883a 	mov	r5,r20
 800414c:	100d883a 	mov	r6,r2
 8004150:	180f883a 	mov	r7,r3
 8004154:	800bb380 	call	800bb38 <__muldf3>
 8004158:	01d00734 	movhi	r7,16412
 800415c:	1009883a 	mov	r4,r2
 8004160:	180b883a 	mov	r5,r3
 8004164:	000d883a 	mov	r6,zero
 8004168:	800a6d80 	call	800a6d8 <__adddf3>
 800416c:	d9c00617 	ldw	r7,24(sp)
 8004170:	05bf3034 	movhi	r22,64704
 8004174:	1023883a 	mov	r17,r2
 8004178:	39ffffc4 	addi	r7,r7,-1
 800417c:	d9c01315 	stw	r7,76(sp)
 8004180:	1daf883a 	add	r23,r3,r22
 8004184:	dac00d17 	ldw	r11,52(sp)
 8004188:	003be006 	br	800310c <__alt_data_end+0xfc00310c>
 800418c:	d9801117 	ldw	r6,68(sp)
 8004190:	d9c01217 	ldw	r7,72(sp)
 8004194:	0009883a 	mov	r4,zero
 8004198:	014ff834 	movhi	r5,16352
 800419c:	da801615 	stw	r10,88(sp)
 80041a0:	800c3380 	call	800c338 <__subdf3>
 80041a4:	da801617 	ldw	r10,88(sp)
 80041a8:	1009883a 	mov	r4,r2
 80041ac:	180b883a 	mov	r5,r3
 80041b0:	b80d883a 	mov	r6,r23
 80041b4:	500f883a 	mov	r7,r10
 80041b8:	800b9740 	call	800b974 <__gedf2>
 80041bc:	00bc7b0e 	bge	zero,r2,80033ac <__alt_data_end+0xfc0033ac>
 80041c0:	01000c04 	movi	r4,48
 80041c4:	00000106 	br	80041cc <_dtoa_r+0x158c>
 80041c8:	102d883a 	mov	r22,r2
 80041cc:	b0bfffc4 	addi	r2,r22,-1
 80041d0:	10c00007 	ldb	r3,0(r2)
 80041d4:	193ffc26 	beq	r3,r4,80041c8 <__alt_data_end+0xfc0041c8>
 80041d8:	d9001317 	ldw	r4,76(sp)
 80041dc:	d9000615 	stw	r4,24(sp)
 80041e0:	003c4306 	br	80032f0 <__alt_data_end+0xfc0032f0>
 80041e4:	d8c01317 	ldw	r3,76(sp)
 80041e8:	dc001117 	ldw	r16,68(sp)
 80041ec:	d8c00615 	stw	r3,24(sp)
 80041f0:	003cee06 	br	80035ac <__alt_data_end+0xfc0035ac>
 80041f4:	dd401217 	ldw	r21,72(sp)
 80041f8:	dc001117 	ldw	r16,68(sp)
 80041fc:	dc801417 	ldw	r18,80(sp)
 8004200:	003c6a06 	br	80033ac <__alt_data_end+0xfc0033ac>
 8004204:	103e6f1e 	bne	r2,zero,8003bc4 <__alt_data_end+0xfc003bc4>
 8004208:	b880004c 	andi	r2,r23,1
 800420c:	103e6d26 	beq	r2,zero,8003bc4 <__alt_data_end+0xfc003bc4>
 8004210:	003e6906 	br	8003bb8 <__alt_data_end+0xfc003bb8>
 8004214:	8009883a 	mov	r4,r16
 8004218:	880b883a 	mov	r5,r17
 800421c:	01800284 	movi	r6,10
 8004220:	000f883a 	mov	r7,zero
 8004224:	800620c0 	call	800620c <__multadd>
 8004228:	d9000d17 	ldw	r4,52(sp)
 800422c:	1023883a 	mov	r17,r2
 8004230:	d9000915 	stw	r4,36(sp)
 8004234:	003d5006 	br	8003778 <__alt_data_end+0xfc003778>
 8004238:	04400084 	movi	r17,2
 800423c:	003b9706 	br	800309c <__alt_data_end+0xfc00309c>
 8004240:	d8801317 	ldw	r2,76(sp)
 8004244:	d8800615 	stw	r2,24(sp)
 8004248:	003cd806 	br	80035ac <__alt_data_end+0xfc0035ac>
 800424c:	d8801317 	ldw	r2,76(sp)
 8004250:	d8800615 	stw	r2,24(sp)
 8004254:	003c2606 	br	80032f0 <__alt_data_end+0xfc0032f0>
 8004258:	04c00044 	movi	r19,1
 800425c:	003b3506 	br	8002f34 <__alt_data_end+0xfc002f34>
 8004260:	3023883a 	mov	r17,r6
 8004264:	000b883a 	mov	r5,zero
 8004268:	003b5106 	br	8002fb0 <__alt_data_end+0xfc002fb0>
 800426c:	20fd3426 	beq	r4,r3,8003740 <__alt_data_end+0xfc003740>
 8004270:	00c00f04 	movi	r3,60
 8004274:	1885c83a 	sub	r2,r3,r2
 8004278:	003da106 	br	8003900 <__alt_data_end+0xfc003900>

0800427c <_fflush_r>:
 800427c:	defffb04 	addi	sp,sp,-20
 8004280:	dcc00315 	stw	r19,12(sp)
 8004284:	dc400115 	stw	r17,4(sp)
 8004288:	dfc00415 	stw	ra,16(sp)
 800428c:	dc800215 	stw	r18,8(sp)
 8004290:	dc000015 	stw	r16,0(sp)
 8004294:	2027883a 	mov	r19,r4
 8004298:	2823883a 	mov	r17,r5
 800429c:	20000226 	beq	r4,zero,80042a8 <_fflush_r+0x2c>
 80042a0:	20800e17 	ldw	r2,56(r4)
 80042a4:	10005826 	beq	r2,zero,8004408 <_fflush_r+0x18c>
 80042a8:	8880030b 	ldhu	r2,12(r17)
 80042ac:	10ffffcc 	andi	r3,r2,65535
 80042b0:	18e0001c 	xori	r3,r3,32768
 80042b4:	18e00004 	addi	r3,r3,-32768
 80042b8:	18002b26 	beq	r3,zero,8004368 <_fflush_r+0xec>
 80042bc:	10c0020c 	andi	r3,r2,8
 80042c0:	1800311e 	bne	r3,zero,8004388 <_fflush_r+0x10c>
 80042c4:	88c00117 	ldw	r3,4(r17)
 80042c8:	10820014 	ori	r2,r2,2048
 80042cc:	8880030d 	sth	r2,12(r17)
 80042d0:	00c05c0e 	bge	zero,r3,8004444 <_fflush_r+0x1c8>
 80042d4:	88c00a17 	ldw	r3,40(r17)
 80042d8:	18002326 	beq	r3,zero,8004368 <_fflush_r+0xec>
 80042dc:	9c000017 	ldw	r16,0(r19)
 80042e0:	1104000c 	andi	r4,r2,4096
 80042e4:	98000015 	stw	zero,0(r19)
 80042e8:	20004b26 	beq	r4,zero,8004418 <_fflush_r+0x19c>
 80042ec:	89801417 	ldw	r6,80(r17)
 80042f0:	1080010c 	andi	r2,r2,4
 80042f4:	10000626 	beq	r2,zero,8004310 <_fflush_r+0x94>
 80042f8:	89000117 	ldw	r4,4(r17)
 80042fc:	88800c17 	ldw	r2,48(r17)
 8004300:	310dc83a 	sub	r6,r6,r4
 8004304:	10000226 	beq	r2,zero,8004310 <_fflush_r+0x94>
 8004308:	88800f17 	ldw	r2,60(r17)
 800430c:	308dc83a 	sub	r6,r6,r2
 8004310:	89400717 	ldw	r5,28(r17)
 8004314:	9809883a 	mov	r4,r19
 8004318:	000f883a 	mov	r7,zero
 800431c:	183ee83a 	callr	r3
 8004320:	00ffffc4 	movi	r3,-1
 8004324:	10c04a26 	beq	r2,r3,8004450 <_fflush_r+0x1d4>
 8004328:	88c0030b 	ldhu	r3,12(r17)
 800432c:	89000417 	ldw	r4,16(r17)
 8004330:	88000115 	stw	zero,4(r17)
 8004334:	197dffcc 	andi	r5,r3,63487
 8004338:	8940030d 	sth	r5,12(r17)
 800433c:	89000015 	stw	r4,0(r17)
 8004340:	18c4000c 	andi	r3,r3,4096
 8004344:	1800581e 	bne	r3,zero,80044a8 <_fflush_r+0x22c>
 8004348:	89400c17 	ldw	r5,48(r17)
 800434c:	9c000015 	stw	r16,0(r19)
 8004350:	28000526 	beq	r5,zero,8004368 <_fflush_r+0xec>
 8004354:	88801004 	addi	r2,r17,64
 8004358:	28800226 	beq	r5,r2,8004364 <_fflush_r+0xe8>
 800435c:	9809883a 	mov	r4,r19
 8004360:	80049d00 	call	80049d0 <_free_r>
 8004364:	88000c15 	stw	zero,48(r17)
 8004368:	0005883a 	mov	r2,zero
 800436c:	dfc00417 	ldw	ra,16(sp)
 8004370:	dcc00317 	ldw	r19,12(sp)
 8004374:	dc800217 	ldw	r18,8(sp)
 8004378:	dc400117 	ldw	r17,4(sp)
 800437c:	dc000017 	ldw	r16,0(sp)
 8004380:	dec00504 	addi	sp,sp,20
 8004384:	f800283a 	ret
 8004388:	8c800417 	ldw	r18,16(r17)
 800438c:	903ff626 	beq	r18,zero,8004368 <__alt_data_end+0xfc004368>
 8004390:	8c000017 	ldw	r16,0(r17)
 8004394:	108000cc 	andi	r2,r2,3
 8004398:	8c800015 	stw	r18,0(r17)
 800439c:	84a1c83a 	sub	r16,r16,r18
 80043a0:	10001b26 	beq	r2,zero,8004410 <_fflush_r+0x194>
 80043a4:	0005883a 	mov	r2,zero
 80043a8:	88800215 	stw	r2,8(r17)
 80043ac:	04000316 	blt	zero,r16,80043bc <_fflush_r+0x140>
 80043b0:	003fed06 	br	8004368 <__alt_data_end+0xfc004368>
 80043b4:	90a5883a 	add	r18,r18,r2
 80043b8:	043feb0e 	bge	zero,r16,8004368 <__alt_data_end+0xfc004368>
 80043bc:	88800917 	ldw	r2,36(r17)
 80043c0:	89400717 	ldw	r5,28(r17)
 80043c4:	800f883a 	mov	r7,r16
 80043c8:	900d883a 	mov	r6,r18
 80043cc:	9809883a 	mov	r4,r19
 80043d0:	103ee83a 	callr	r2
 80043d4:	80a1c83a 	sub	r16,r16,r2
 80043d8:	00bff616 	blt	zero,r2,80043b4 <__alt_data_end+0xfc0043b4>
 80043dc:	88c0030b 	ldhu	r3,12(r17)
 80043e0:	00bfffc4 	movi	r2,-1
 80043e4:	18c01014 	ori	r3,r3,64
 80043e8:	88c0030d 	sth	r3,12(r17)
 80043ec:	dfc00417 	ldw	ra,16(sp)
 80043f0:	dcc00317 	ldw	r19,12(sp)
 80043f4:	dc800217 	ldw	r18,8(sp)
 80043f8:	dc400117 	ldw	r17,4(sp)
 80043fc:	dc000017 	ldw	r16,0(sp)
 8004400:	dec00504 	addi	sp,sp,20
 8004404:	f800283a 	ret
 8004408:	800459c0 	call	800459c <__sinit>
 800440c:	003fa606 	br	80042a8 <__alt_data_end+0xfc0042a8>
 8004410:	88800517 	ldw	r2,20(r17)
 8004414:	003fe406 	br	80043a8 <__alt_data_end+0xfc0043a8>
 8004418:	89400717 	ldw	r5,28(r17)
 800441c:	000d883a 	mov	r6,zero
 8004420:	9809883a 	mov	r4,r19
 8004424:	01c00044 	movi	r7,1
 8004428:	183ee83a 	callr	r3
 800442c:	100d883a 	mov	r6,r2
 8004430:	00bfffc4 	movi	r2,-1
 8004434:	30801326 	beq	r6,r2,8004484 <_fflush_r+0x208>
 8004438:	8880030b 	ldhu	r2,12(r17)
 800443c:	88c00a17 	ldw	r3,40(r17)
 8004440:	003fab06 	br	80042f0 <__alt_data_end+0xfc0042f0>
 8004444:	88c00f17 	ldw	r3,60(r17)
 8004448:	00ffa216 	blt	zero,r3,80042d4 <__alt_data_end+0xfc0042d4>
 800444c:	003fc606 	br	8004368 <__alt_data_end+0xfc004368>
 8004450:	98c00017 	ldw	r3,0(r19)
 8004454:	183fb426 	beq	r3,zero,8004328 <__alt_data_end+0xfc004328>
 8004458:	01000744 	movi	r4,29
 800445c:	19000226 	beq	r3,r4,8004468 <_fflush_r+0x1ec>
 8004460:	01000584 	movi	r4,22
 8004464:	1900121e 	bne	r3,r4,80044b0 <_fflush_r+0x234>
 8004468:	88c0030b 	ldhu	r3,12(r17)
 800446c:	88800417 	ldw	r2,16(r17)
 8004470:	88000115 	stw	zero,4(r17)
 8004474:	18fdffcc 	andi	r3,r3,63487
 8004478:	88c0030d 	sth	r3,12(r17)
 800447c:	88800015 	stw	r2,0(r17)
 8004480:	003fb106 	br	8004348 <__alt_data_end+0xfc004348>
 8004484:	98800017 	ldw	r2,0(r19)
 8004488:	103feb26 	beq	r2,zero,8004438 <__alt_data_end+0xfc004438>
 800448c:	00c00744 	movi	r3,29
 8004490:	10c00226 	beq	r2,r3,800449c <_fflush_r+0x220>
 8004494:	00c00584 	movi	r3,22
 8004498:	10ffd01e 	bne	r2,r3,80043dc <__alt_data_end+0xfc0043dc>
 800449c:	9c000015 	stw	r16,0(r19)
 80044a0:	0005883a 	mov	r2,zero
 80044a4:	003fb106 	br	800436c <__alt_data_end+0xfc00436c>
 80044a8:	88801415 	stw	r2,80(r17)
 80044ac:	003fa606 	br	8004348 <__alt_data_end+0xfc004348>
 80044b0:	88c0030b 	ldhu	r3,12(r17)
 80044b4:	18c01014 	ori	r3,r3,64
 80044b8:	88c0030d 	sth	r3,12(r17)
 80044bc:	003fab06 	br	800436c <__alt_data_end+0xfc00436c>

080044c0 <fflush>:
 80044c0:	200b883a 	mov	r5,r4
 80044c4:	20000426 	beq	r4,zero,80044d8 <fflush+0x18>
 80044c8:	00820074 	movhi	r2,2049
 80044cc:	10864704 	addi	r2,r2,6428
 80044d0:	11000017 	ldw	r4,0(r2)
 80044d4:	800427c1 	jmpi	800427c <_fflush_r>
 80044d8:	00820074 	movhi	r2,2049
 80044dc:	10864604 	addi	r2,r2,6424
 80044e0:	11000017 	ldw	r4,0(r2)
 80044e4:	01420034 	movhi	r5,2048
 80044e8:	29509f04 	addi	r5,r5,17020
 80044ec:	80051f41 	jmpi	80051f4 <_fwalk_reent>

080044f0 <__fp_lock>:
 80044f0:	0005883a 	mov	r2,zero
 80044f4:	f800283a 	ret

080044f8 <__fp_unlock>:
 80044f8:	0005883a 	mov	r2,zero
 80044fc:	f800283a 	ret

08004500 <_cleanup_r>:
 8004500:	01420074 	movhi	r5,2049
 8004504:	29647104 	addi	r5,r5,-28220
 8004508:	800514c1 	jmpi	800514c <_fwalk>

0800450c <__sfmoreglue>:
 800450c:	defffc04 	addi	sp,sp,-16
 8004510:	dc800215 	stw	r18,8(sp)
 8004514:	2825883a 	mov	r18,r5
 8004518:	dc000015 	stw	r16,0(sp)
 800451c:	01401a04 	movi	r5,104
 8004520:	2021883a 	mov	r16,r4
 8004524:	9009883a 	mov	r4,r18
 8004528:	dfc00315 	stw	ra,12(sp)
 800452c:	dc400115 	stw	r17,4(sp)
 8004530:	800a6b00 	call	800a6b0 <__mulsi3>
 8004534:	8009883a 	mov	r4,r16
 8004538:	11400304 	addi	r5,r2,12
 800453c:	1023883a 	mov	r17,r2
 8004540:	80055340 	call	8005534 <_malloc_r>
 8004544:	1021883a 	mov	r16,r2
 8004548:	10000726 	beq	r2,zero,8004568 <__sfmoreglue+0x5c>
 800454c:	11000304 	addi	r4,r2,12
 8004550:	10000015 	stw	zero,0(r2)
 8004554:	14800115 	stw	r18,4(r2)
 8004558:	11000215 	stw	r4,8(r2)
 800455c:	000b883a 	mov	r5,zero
 8004560:	880d883a 	mov	r6,r17
 8004564:	80060280 	call	8006028 <memset>
 8004568:	8005883a 	mov	r2,r16
 800456c:	dfc00317 	ldw	ra,12(sp)
 8004570:	dc800217 	ldw	r18,8(sp)
 8004574:	dc400117 	ldw	r17,4(sp)
 8004578:	dc000017 	ldw	r16,0(sp)
 800457c:	dec00404 	addi	sp,sp,16
 8004580:	f800283a 	ret

08004584 <_cleanup>:
 8004584:	00820074 	movhi	r2,2049
 8004588:	10864604 	addi	r2,r2,6424
 800458c:	11000017 	ldw	r4,0(r2)
 8004590:	01420074 	movhi	r5,2049
 8004594:	29647104 	addi	r5,r5,-28220
 8004598:	800514c1 	jmpi	800514c <_fwalk>

0800459c <__sinit>:
 800459c:	20800e17 	ldw	r2,56(r4)
 80045a0:	defff704 	addi	sp,sp,-36
 80045a4:	dc800215 	stw	r18,8(sp)
 80045a8:	dfc00815 	stw	ra,32(sp)
 80045ac:	ddc00715 	stw	r23,28(sp)
 80045b0:	dd800615 	stw	r22,24(sp)
 80045b4:	dd400515 	stw	r21,20(sp)
 80045b8:	dd000415 	stw	r20,16(sp)
 80045bc:	dcc00315 	stw	r19,12(sp)
 80045c0:	dc400115 	stw	r17,4(sp)
 80045c4:	dc000015 	stw	r16,0(sp)
 80045c8:	2025883a 	mov	r18,r4
 80045cc:	10004f1e 	bne	r2,zero,800470c <__sinit+0x170>
 80045d0:	24000117 	ldw	r16,4(r4)
 80045d4:	00c20034 	movhi	r3,2048
 80045d8:	18d14004 	addi	r3,r3,17664
 80045dc:	20c00f15 	stw	r3,60(r4)
 80045e0:	2080bb04 	addi	r2,r4,748
 80045e4:	00c000c4 	movi	r3,3
 80045e8:	05c00044 	movi	r23,1
 80045ec:	20c0b915 	stw	r3,740(r4)
 80045f0:	2080ba15 	stw	r2,744(r4)
 80045f4:	25c00e15 	stw	r23,56(r4)
 80045f8:	2000b815 	stw	zero,736(r4)
 80045fc:	00800104 	movi	r2,4
 8004600:	81001704 	addi	r4,r16,92
 8004604:	000b883a 	mov	r5,zero
 8004608:	01800204 	movi	r6,8
 800460c:	80000015 	stw	zero,0(r16)
 8004610:	80000115 	stw	zero,4(r16)
 8004614:	80000215 	stw	zero,8(r16)
 8004618:	8080030d 	sth	r2,12(r16)
 800461c:	80001915 	stw	zero,100(r16)
 8004620:	8000038d 	sth	zero,14(r16)
 8004624:	80000415 	stw	zero,16(r16)
 8004628:	80000515 	stw	zero,20(r16)
 800462c:	80000615 	stw	zero,24(r16)
 8004630:	80060280 	call	8006028 <memset>
 8004634:	94400217 	ldw	r17,8(r18)
 8004638:	05820034 	movhi	r22,2048
 800463c:	b59de504 	addi	r22,r22,30612
 8004640:	05420034 	movhi	r21,2048
 8004644:	ad5dfc04 	addi	r21,r21,30704
 8004648:	05020034 	movhi	r20,2048
 800464c:	a51e1b04 	addi	r20,r20,30828
 8004650:	04c20034 	movhi	r19,2048
 8004654:	9cde3204 	addi	r19,r19,30920
 8004658:	84000715 	stw	r16,28(r16)
 800465c:	85800815 	stw	r22,32(r16)
 8004660:	85400915 	stw	r21,36(r16)
 8004664:	85000a15 	stw	r20,40(r16)
 8004668:	84c00b15 	stw	r19,44(r16)
 800466c:	00800284 	movi	r2,10
 8004670:	89001704 	addi	r4,r17,92
 8004674:	000b883a 	mov	r5,zero
 8004678:	01800204 	movi	r6,8
 800467c:	88000015 	stw	zero,0(r17)
 8004680:	88000115 	stw	zero,4(r17)
 8004684:	88000215 	stw	zero,8(r17)
 8004688:	8880030d 	sth	r2,12(r17)
 800468c:	88001915 	stw	zero,100(r17)
 8004690:	8dc0038d 	sth	r23,14(r17)
 8004694:	88000415 	stw	zero,16(r17)
 8004698:	88000515 	stw	zero,20(r17)
 800469c:	88000615 	stw	zero,24(r17)
 80046a0:	80060280 	call	8006028 <memset>
 80046a4:	94000317 	ldw	r16,12(r18)
 80046a8:	00800484 	movi	r2,18
 80046ac:	8c400715 	stw	r17,28(r17)
 80046b0:	8d800815 	stw	r22,32(r17)
 80046b4:	8d400915 	stw	r21,36(r17)
 80046b8:	8d000a15 	stw	r20,40(r17)
 80046bc:	8cc00b15 	stw	r19,44(r17)
 80046c0:	8080030d 	sth	r2,12(r16)
 80046c4:	00800084 	movi	r2,2
 80046c8:	80000015 	stw	zero,0(r16)
 80046cc:	80000115 	stw	zero,4(r16)
 80046d0:	80000215 	stw	zero,8(r16)
 80046d4:	80001915 	stw	zero,100(r16)
 80046d8:	8080038d 	sth	r2,14(r16)
 80046dc:	80000415 	stw	zero,16(r16)
 80046e0:	80000515 	stw	zero,20(r16)
 80046e4:	80000615 	stw	zero,24(r16)
 80046e8:	81001704 	addi	r4,r16,92
 80046ec:	000b883a 	mov	r5,zero
 80046f0:	01800204 	movi	r6,8
 80046f4:	80060280 	call	8006028 <memset>
 80046f8:	84000715 	stw	r16,28(r16)
 80046fc:	85800815 	stw	r22,32(r16)
 8004700:	85400915 	stw	r21,36(r16)
 8004704:	85000a15 	stw	r20,40(r16)
 8004708:	84c00b15 	stw	r19,44(r16)
 800470c:	dfc00817 	ldw	ra,32(sp)
 8004710:	ddc00717 	ldw	r23,28(sp)
 8004714:	dd800617 	ldw	r22,24(sp)
 8004718:	dd400517 	ldw	r21,20(sp)
 800471c:	dd000417 	ldw	r20,16(sp)
 8004720:	dcc00317 	ldw	r19,12(sp)
 8004724:	dc800217 	ldw	r18,8(sp)
 8004728:	dc400117 	ldw	r17,4(sp)
 800472c:	dc000017 	ldw	r16,0(sp)
 8004730:	dec00904 	addi	sp,sp,36
 8004734:	f800283a 	ret

08004738 <__sfp>:
 8004738:	defffb04 	addi	sp,sp,-20
 800473c:	00820074 	movhi	r2,2049
 8004740:	10864604 	addi	r2,r2,6424
 8004744:	dc800215 	stw	r18,8(sp)
 8004748:	14800017 	ldw	r18,0(r2)
 800474c:	dcc00315 	stw	r19,12(sp)
 8004750:	dfc00415 	stw	ra,16(sp)
 8004754:	90800e17 	ldw	r2,56(r18)
 8004758:	dc400115 	stw	r17,4(sp)
 800475c:	dc000015 	stw	r16,0(sp)
 8004760:	2027883a 	mov	r19,r4
 8004764:	10002f26 	beq	r2,zero,8004824 <__sfp+0xec>
 8004768:	9480b804 	addi	r18,r18,736
 800476c:	047fffc4 	movi	r17,-1
 8004770:	91400117 	ldw	r5,4(r18)
 8004774:	94000217 	ldw	r16,8(r18)
 8004778:	297fffc4 	addi	r5,r5,-1
 800477c:	28000a16 	blt	r5,zero,80047a8 <__sfp+0x70>
 8004780:	8080030f 	ldh	r2,12(r16)
 8004784:	10000c26 	beq	r2,zero,80047b8 <__sfp+0x80>
 8004788:	80c01d04 	addi	r3,r16,116
 800478c:	00000206 	br	8004798 <__sfp+0x60>
 8004790:	18bfe60f 	ldh	r2,-104(r3)
 8004794:	10000826 	beq	r2,zero,80047b8 <__sfp+0x80>
 8004798:	297fffc4 	addi	r5,r5,-1
 800479c:	1c3ffd04 	addi	r16,r3,-12
 80047a0:	18c01a04 	addi	r3,r3,104
 80047a4:	2c7ffa1e 	bne	r5,r17,8004790 <__alt_data_end+0xfc004790>
 80047a8:	90800017 	ldw	r2,0(r18)
 80047ac:	10002026 	beq	r2,zero,8004830 <__sfp+0xf8>
 80047b0:	1025883a 	mov	r18,r2
 80047b4:	003fee06 	br	8004770 <__alt_data_end+0xfc004770>
 80047b8:	00bfffc4 	movi	r2,-1
 80047bc:	8080038d 	sth	r2,14(r16)
 80047c0:	00800044 	movi	r2,1
 80047c4:	8080030d 	sth	r2,12(r16)
 80047c8:	80001915 	stw	zero,100(r16)
 80047cc:	80000015 	stw	zero,0(r16)
 80047d0:	80000215 	stw	zero,8(r16)
 80047d4:	80000115 	stw	zero,4(r16)
 80047d8:	80000415 	stw	zero,16(r16)
 80047dc:	80000515 	stw	zero,20(r16)
 80047e0:	80000615 	stw	zero,24(r16)
 80047e4:	81001704 	addi	r4,r16,92
 80047e8:	000b883a 	mov	r5,zero
 80047ec:	01800204 	movi	r6,8
 80047f0:	80060280 	call	8006028 <memset>
 80047f4:	8005883a 	mov	r2,r16
 80047f8:	80000c15 	stw	zero,48(r16)
 80047fc:	80000d15 	stw	zero,52(r16)
 8004800:	80001115 	stw	zero,68(r16)
 8004804:	80001215 	stw	zero,72(r16)
 8004808:	dfc00417 	ldw	ra,16(sp)
 800480c:	dcc00317 	ldw	r19,12(sp)
 8004810:	dc800217 	ldw	r18,8(sp)
 8004814:	dc400117 	ldw	r17,4(sp)
 8004818:	dc000017 	ldw	r16,0(sp)
 800481c:	dec00504 	addi	sp,sp,20
 8004820:	f800283a 	ret
 8004824:	9009883a 	mov	r4,r18
 8004828:	800459c0 	call	800459c <__sinit>
 800482c:	003fce06 	br	8004768 <__alt_data_end+0xfc004768>
 8004830:	9809883a 	mov	r4,r19
 8004834:	01400104 	movi	r5,4
 8004838:	800450c0 	call	800450c <__sfmoreglue>
 800483c:	90800015 	stw	r2,0(r18)
 8004840:	103fdb1e 	bne	r2,zero,80047b0 <__alt_data_end+0xfc0047b0>
 8004844:	00800304 	movi	r2,12
 8004848:	98800015 	stw	r2,0(r19)
 800484c:	0005883a 	mov	r2,zero
 8004850:	003fed06 	br	8004808 <__alt_data_end+0xfc004808>

08004854 <__sfp_lock_acquire>:
 8004854:	f800283a 	ret

08004858 <__sfp_lock_release>:
 8004858:	f800283a 	ret

0800485c <__sinit_lock_acquire>:
 800485c:	f800283a 	ret

08004860 <__sinit_lock_release>:
 8004860:	f800283a 	ret

08004864 <__fp_lock_all>:
 8004864:	00820074 	movhi	r2,2049
 8004868:	10864704 	addi	r2,r2,6428
 800486c:	11000017 	ldw	r4,0(r2)
 8004870:	01420034 	movhi	r5,2048
 8004874:	29513c04 	addi	r5,r5,17648
 8004878:	800514c1 	jmpi	800514c <_fwalk>

0800487c <__fp_unlock_all>:
 800487c:	00820074 	movhi	r2,2049
 8004880:	10864704 	addi	r2,r2,6428
 8004884:	11000017 	ldw	r4,0(r2)
 8004888:	01420034 	movhi	r5,2048
 800488c:	29513e04 	addi	r5,r5,17656
 8004890:	800514c1 	jmpi	800514c <_fwalk>

08004894 <_malloc_trim_r>:
 8004894:	defffb04 	addi	sp,sp,-20
 8004898:	dcc00315 	stw	r19,12(sp)
 800489c:	dc800215 	stw	r18,8(sp)
 80048a0:	dc400115 	stw	r17,4(sp)
 80048a4:	dc000015 	stw	r16,0(sp)
 80048a8:	2827883a 	mov	r19,r5
 80048ac:	dfc00415 	stw	ra,16(sp)
 80048b0:	04420074 	movhi	r17,2049
 80048b4:	8c40b704 	addi	r17,r17,732
 80048b8:	2021883a 	mov	r16,r4
 80048bc:	800d4280 	call	800d428 <__malloc_lock>
 80048c0:	88800217 	ldw	r2,8(r17)
 80048c4:	14800117 	ldw	r18,4(r2)
 80048c8:	00bfff04 	movi	r2,-4
 80048cc:	90a4703a 	and	r18,r18,r2
 80048d0:	94e7c83a 	sub	r19,r18,r19
 80048d4:	9cc3fbc4 	addi	r19,r19,4079
 80048d8:	9826d33a 	srli	r19,r19,12
 80048dc:	0083ffc4 	movi	r2,4095
 80048e0:	9cffffc4 	addi	r19,r19,-1
 80048e4:	9826933a 	slli	r19,r19,12
 80048e8:	14c0060e 	bge	r2,r19,8004904 <_malloc_trim_r+0x70>
 80048ec:	8009883a 	mov	r4,r16
 80048f0:	000b883a 	mov	r5,zero
 80048f4:	80077300 	call	8007730 <_sbrk_r>
 80048f8:	88c00217 	ldw	r3,8(r17)
 80048fc:	1c87883a 	add	r3,r3,r18
 8004900:	10c00a26 	beq	r2,r3,800492c <_malloc_trim_r+0x98>
 8004904:	8009883a 	mov	r4,r16
 8004908:	800d4480 	call	800d448 <__malloc_unlock>
 800490c:	0005883a 	mov	r2,zero
 8004910:	dfc00417 	ldw	ra,16(sp)
 8004914:	dcc00317 	ldw	r19,12(sp)
 8004918:	dc800217 	ldw	r18,8(sp)
 800491c:	dc400117 	ldw	r17,4(sp)
 8004920:	dc000017 	ldw	r16,0(sp)
 8004924:	dec00504 	addi	sp,sp,20
 8004928:	f800283a 	ret
 800492c:	8009883a 	mov	r4,r16
 8004930:	04cbc83a 	sub	r5,zero,r19
 8004934:	80077300 	call	8007730 <_sbrk_r>
 8004938:	00ffffc4 	movi	r3,-1
 800493c:	10c01326 	beq	r2,r3,800498c <_malloc_trim_r+0xf8>
 8004940:	00820074 	movhi	r2,2049
 8004944:	108d2904 	addi	r2,r2,13476
 8004948:	11000017 	ldw	r4,0(r2)
 800494c:	88c00217 	ldw	r3,8(r17)
 8004950:	94e5c83a 	sub	r18,r18,r19
 8004954:	94800054 	ori	r18,r18,1
 8004958:	24e7c83a 	sub	r19,r4,r19
 800495c:	1c800115 	stw	r18,4(r3)
 8004960:	8009883a 	mov	r4,r16
 8004964:	14c00015 	stw	r19,0(r2)
 8004968:	800d4480 	call	800d448 <__malloc_unlock>
 800496c:	00800044 	movi	r2,1
 8004970:	dfc00417 	ldw	ra,16(sp)
 8004974:	dcc00317 	ldw	r19,12(sp)
 8004978:	dc800217 	ldw	r18,8(sp)
 800497c:	dc400117 	ldw	r17,4(sp)
 8004980:	dc000017 	ldw	r16,0(sp)
 8004984:	dec00504 	addi	sp,sp,20
 8004988:	f800283a 	ret
 800498c:	8009883a 	mov	r4,r16
 8004990:	000b883a 	mov	r5,zero
 8004994:	80077300 	call	8007730 <_sbrk_r>
 8004998:	88c00217 	ldw	r3,8(r17)
 800499c:	014003c4 	movi	r5,15
 80049a0:	10c9c83a 	sub	r4,r2,r3
 80049a4:	293fd70e 	bge	r5,r4,8004904 <__alt_data_end+0xfc004904>
 80049a8:	01420074 	movhi	r5,2049
 80049ac:	29464904 	addi	r5,r5,6436
 80049b0:	29400017 	ldw	r5,0(r5)
 80049b4:	21000054 	ori	r4,r4,1
 80049b8:	19000115 	stw	r4,4(r3)
 80049bc:	1145c83a 	sub	r2,r2,r5
 80049c0:	01420074 	movhi	r5,2049
 80049c4:	294d2904 	addi	r5,r5,13476
 80049c8:	28800015 	stw	r2,0(r5)
 80049cc:	003fcd06 	br	8004904 <__alt_data_end+0xfc004904>

080049d0 <_free_r>:
 80049d0:	defffd04 	addi	sp,sp,-12
 80049d4:	dc000015 	stw	r16,0(sp)
 80049d8:	dfc00215 	stw	ra,8(sp)
 80049dc:	dc400115 	stw	r17,4(sp)
 80049e0:	2821883a 	mov	r16,r5
 80049e4:	28004c26 	beq	r5,zero,8004b18 <_free_r+0x148>
 80049e8:	2023883a 	mov	r17,r4
 80049ec:	800d4280 	call	800d428 <__malloc_lock>
 80049f0:	823fff17 	ldw	r8,-4(r16)
 80049f4:	00bfff84 	movi	r2,-2
 80049f8:	81bffe04 	addi	r6,r16,-8
 80049fc:	4084703a 	and	r2,r8,r2
 8004a00:	3087883a 	add	r3,r6,r2
 8004a04:	01420074 	movhi	r5,2049
 8004a08:	2940b704 	addi	r5,r5,732
 8004a0c:	1a400117 	ldw	r9,4(r3)
 8004a10:	29000217 	ldw	r4,8(r5)
 8004a14:	01ffff04 	movi	r7,-4
 8004a18:	49ce703a 	and	r7,r9,r7
 8004a1c:	20c06526 	beq	r4,r3,8004bb4 <_free_r+0x1e4>
 8004a20:	19c00115 	stw	r7,4(r3)
 8004a24:	4200004c 	andi	r8,r8,1
 8004a28:	40003026 	beq	r8,zero,8004aec <_free_r+0x11c>
 8004a2c:	0009883a 	mov	r4,zero
 8004a30:	19d1883a 	add	r8,r3,r7
 8004a34:	42000117 	ldw	r8,4(r8)
 8004a38:	4200004c 	andi	r8,r8,1
 8004a3c:	4000061e 	bne	r8,zero,8004a58 <_free_r+0x88>
 8004a40:	11c5883a 	add	r2,r2,r7
 8004a44:	19c00217 	ldw	r7,8(r3)
 8004a48:	20004e26 	beq	r4,zero,8004b84 <_free_r+0x1b4>
 8004a4c:	18c00317 	ldw	r3,12(r3)
 8004a50:	38c00315 	stw	r3,12(r7)
 8004a54:	19c00215 	stw	r7,8(r3)
 8004a58:	10c00054 	ori	r3,r2,1
 8004a5c:	30c00115 	stw	r3,4(r6)
 8004a60:	3087883a 	add	r3,r6,r2
 8004a64:	18800015 	stw	r2,0(r3)
 8004a68:	20001a1e 	bne	r4,zero,8004ad4 <_free_r+0x104>
 8004a6c:	00c07fc4 	movi	r3,511
 8004a70:	18802e2e 	bgeu	r3,r2,8004b2c <_free_r+0x15c>
 8004a74:	1006d27a 	srli	r3,r2,9
 8004a78:	01000104 	movi	r4,4
 8004a7c:	20c06636 	bltu	r4,r3,8004c18 <_free_r+0x248>
 8004a80:	1008d1ba 	srli	r4,r2,6
 8004a84:	21000e04 	addi	r4,r4,56
 8004a88:	210f883a 	add	r7,r4,r4
 8004a8c:	39cf883a 	add	r7,r7,r7
 8004a90:	39cf883a 	add	r7,r7,r7
 8004a94:	29cf883a 	add	r7,r5,r7
 8004a98:	38c00217 	ldw	r3,8(r7)
 8004a9c:	01420074 	movhi	r5,2049
 8004aa0:	2940b704 	addi	r5,r5,732
 8004aa4:	19c06126 	beq	r3,r7,8004c2c <_free_r+0x25c>
 8004aa8:	013fff04 	movi	r4,-4
 8004aac:	19400117 	ldw	r5,4(r3)
 8004ab0:	290a703a 	and	r5,r5,r4
 8004ab4:	1140022e 	bgeu	r2,r5,8004ac0 <_free_r+0xf0>
 8004ab8:	18c00217 	ldw	r3,8(r3)
 8004abc:	38fffb1e 	bne	r7,r3,8004aac <__alt_data_end+0xfc004aac>
 8004ac0:	18800317 	ldw	r2,12(r3)
 8004ac4:	30800315 	stw	r2,12(r6)
 8004ac8:	30c00215 	stw	r3,8(r6)
 8004acc:	11800215 	stw	r6,8(r2)
 8004ad0:	19800315 	stw	r6,12(r3)
 8004ad4:	8809883a 	mov	r4,r17
 8004ad8:	dfc00217 	ldw	ra,8(sp)
 8004adc:	dc400117 	ldw	r17,4(sp)
 8004ae0:	dc000017 	ldw	r16,0(sp)
 8004ae4:	dec00304 	addi	sp,sp,12
 8004ae8:	800d4481 	jmpi	800d448 <__malloc_unlock>
 8004aec:	813ffe17 	ldw	r4,-8(r16)
 8004af0:	2a400204 	addi	r9,r5,8
 8004af4:	310dc83a 	sub	r6,r6,r4
 8004af8:	32000217 	ldw	r8,8(r6)
 8004afc:	1105883a 	add	r2,r2,r4
 8004b00:	42404326 	beq	r8,r9,8004c10 <_free_r+0x240>
 8004b04:	32400317 	ldw	r9,12(r6)
 8004b08:	0009883a 	mov	r4,zero
 8004b0c:	42400315 	stw	r9,12(r8)
 8004b10:	4a000215 	stw	r8,8(r9)
 8004b14:	003fc606 	br	8004a30 <__alt_data_end+0xfc004a30>
 8004b18:	dfc00217 	ldw	ra,8(sp)
 8004b1c:	dc400117 	ldw	r17,4(sp)
 8004b20:	dc000017 	ldw	r16,0(sp)
 8004b24:	dec00304 	addi	sp,sp,12
 8004b28:	f800283a 	ret
 8004b2c:	1004d0fa 	srli	r2,r2,3
 8004b30:	02000044 	movi	r8,1
 8004b34:	29c00117 	ldw	r7,4(r5)
 8004b38:	1087883a 	add	r3,r2,r2
 8004b3c:	18c7883a 	add	r3,r3,r3
 8004b40:	18c7883a 	add	r3,r3,r3
 8004b44:	28c7883a 	add	r3,r5,r3
 8004b48:	1005d0ba 	srai	r2,r2,2
 8004b4c:	19000217 	ldw	r4,8(r3)
 8004b50:	30c00315 	stw	r3,12(r6)
 8004b54:	4084983a 	sll	r2,r8,r2
 8004b58:	31000215 	stw	r4,8(r6)
 8004b5c:	19800215 	stw	r6,8(r3)
 8004b60:	11c4b03a 	or	r2,r2,r7
 8004b64:	21800315 	stw	r6,12(r4)
 8004b68:	8809883a 	mov	r4,r17
 8004b6c:	28800115 	stw	r2,4(r5)
 8004b70:	dfc00217 	ldw	ra,8(sp)
 8004b74:	dc400117 	ldw	r17,4(sp)
 8004b78:	dc000017 	ldw	r16,0(sp)
 8004b7c:	dec00304 	addi	sp,sp,12
 8004b80:	800d4481 	jmpi	800d448 <__malloc_unlock>
 8004b84:	02020074 	movhi	r8,2049
 8004b88:	4200b904 	addi	r8,r8,740
 8004b8c:	3a3faf1e 	bne	r7,r8,8004a4c <__alt_data_end+0xfc004a4c>
 8004b90:	29800515 	stw	r6,20(r5)
 8004b94:	29800415 	stw	r6,16(r5)
 8004b98:	10c00054 	ori	r3,r2,1
 8004b9c:	31c00315 	stw	r7,12(r6)
 8004ba0:	31c00215 	stw	r7,8(r6)
 8004ba4:	30c00115 	stw	r3,4(r6)
 8004ba8:	308d883a 	add	r6,r6,r2
 8004bac:	30800015 	stw	r2,0(r6)
 8004bb0:	003fc806 	br	8004ad4 <__alt_data_end+0xfc004ad4>
 8004bb4:	4200004c 	andi	r8,r8,1
 8004bb8:	3885883a 	add	r2,r7,r2
 8004bbc:	4000071e 	bne	r8,zero,8004bdc <_free_r+0x20c>
 8004bc0:	81fffe17 	ldw	r7,-8(r16)
 8004bc4:	31cdc83a 	sub	r6,r6,r7
 8004bc8:	30c00317 	ldw	r3,12(r6)
 8004bcc:	31000217 	ldw	r4,8(r6)
 8004bd0:	11c5883a 	add	r2,r2,r7
 8004bd4:	20c00315 	stw	r3,12(r4)
 8004bd8:	19000215 	stw	r4,8(r3)
 8004bdc:	00c20074 	movhi	r3,2049
 8004be0:	18c64a04 	addi	r3,r3,6440
 8004be4:	11000054 	ori	r4,r2,1
 8004be8:	18c00017 	ldw	r3,0(r3)
 8004bec:	31000115 	stw	r4,4(r6)
 8004bf0:	29800215 	stw	r6,8(r5)
 8004bf4:	10ffb736 	bltu	r2,r3,8004ad4 <__alt_data_end+0xfc004ad4>
 8004bf8:	00820074 	movhi	r2,2049
 8004bfc:	108d2104 	addi	r2,r2,13444
 8004c00:	11400017 	ldw	r5,0(r2)
 8004c04:	8809883a 	mov	r4,r17
 8004c08:	80048940 	call	8004894 <_malloc_trim_r>
 8004c0c:	003fb106 	br	8004ad4 <__alt_data_end+0xfc004ad4>
 8004c10:	01000044 	movi	r4,1
 8004c14:	003f8606 	br	8004a30 <__alt_data_end+0xfc004a30>
 8004c18:	01000504 	movi	r4,20
 8004c1c:	20c00b36 	bltu	r4,r3,8004c4c <_free_r+0x27c>
 8004c20:	190016c4 	addi	r4,r3,91
 8004c24:	210f883a 	add	r7,r4,r4
 8004c28:	003f9806 	br	8004a8c <__alt_data_end+0xfc004a8c>
 8004c2c:	2009d0ba 	srai	r4,r4,2
 8004c30:	00800044 	movi	r2,1
 8004c34:	29c00117 	ldw	r7,4(r5)
 8004c38:	1108983a 	sll	r4,r2,r4
 8004c3c:	1805883a 	mov	r2,r3
 8004c40:	21c8b03a 	or	r4,r4,r7
 8004c44:	29000115 	stw	r4,4(r5)
 8004c48:	003f9e06 	br	8004ac4 <__alt_data_end+0xfc004ac4>
 8004c4c:	01001504 	movi	r4,84
 8004c50:	20c00436 	bltu	r4,r3,8004c64 <_free_r+0x294>
 8004c54:	1008d33a 	srli	r4,r2,12
 8004c58:	21001b84 	addi	r4,r4,110
 8004c5c:	210f883a 	add	r7,r4,r4
 8004c60:	003f8a06 	br	8004a8c <__alt_data_end+0xfc004a8c>
 8004c64:	01005504 	movi	r4,340
 8004c68:	20c00436 	bltu	r4,r3,8004c7c <_free_r+0x2ac>
 8004c6c:	1008d3fa 	srli	r4,r2,15
 8004c70:	21001dc4 	addi	r4,r4,119
 8004c74:	210f883a 	add	r7,r4,r4
 8004c78:	003f8406 	br	8004a8c <__alt_data_end+0xfc004a8c>
 8004c7c:	01015504 	movi	r4,1364
 8004c80:	20c00436 	bltu	r4,r3,8004c94 <_free_r+0x2c4>
 8004c84:	1008d4ba 	srli	r4,r2,18
 8004c88:	21001f04 	addi	r4,r4,124
 8004c8c:	210f883a 	add	r7,r4,r4
 8004c90:	003f7e06 	br	8004a8c <__alt_data_end+0xfc004a8c>
 8004c94:	01c03f04 	movi	r7,252
 8004c98:	01001f84 	movi	r4,126
 8004c9c:	003f7b06 	br	8004a8c <__alt_data_end+0xfc004a8c>

08004ca0 <__sfvwrite_r>:
 8004ca0:	30800217 	ldw	r2,8(r6)
 8004ca4:	defff404 	addi	sp,sp,-48
 8004ca8:	dcc00515 	stw	r19,20(sp)
 8004cac:	dfc00b15 	stw	ra,44(sp)
 8004cb0:	df000a15 	stw	fp,40(sp)
 8004cb4:	ddc00915 	stw	r23,36(sp)
 8004cb8:	dd800815 	stw	r22,32(sp)
 8004cbc:	dd400715 	stw	r21,28(sp)
 8004cc0:	dd000615 	stw	r20,24(sp)
 8004cc4:	dc800415 	stw	r18,16(sp)
 8004cc8:	dc400315 	stw	r17,12(sp)
 8004ccc:	dc000215 	stw	r16,8(sp)
 8004cd0:	3027883a 	mov	r19,r6
 8004cd4:	10001d26 	beq	r2,zero,8004d4c <__sfvwrite_r+0xac>
 8004cd8:	2880030b 	ldhu	r2,12(r5)
 8004cdc:	202b883a 	mov	r21,r4
 8004ce0:	2821883a 	mov	r16,r5
 8004ce4:	10c0020c 	andi	r3,r2,8
 8004ce8:	18002526 	beq	r3,zero,8004d80 <__sfvwrite_r+0xe0>
 8004cec:	28c00417 	ldw	r3,16(r5)
 8004cf0:	18002326 	beq	r3,zero,8004d80 <__sfvwrite_r+0xe0>
 8004cf4:	10c0008c 	andi	r3,r2,2
 8004cf8:	9c400017 	ldw	r17,0(r19)
 8004cfc:	18002826 	beq	r3,zero,8004da0 <__sfvwrite_r+0x100>
 8004d00:	0029883a 	mov	r20,zero
 8004d04:	0025883a 	mov	r18,zero
 8004d08:	05810004 	movi	r22,1024
 8004d0c:	a00d883a 	mov	r6,r20
 8004d10:	a809883a 	mov	r4,r21
 8004d14:	90004726 	beq	r18,zero,8004e34 <__sfvwrite_r+0x194>
 8004d18:	900f883a 	mov	r7,r18
 8004d1c:	81400717 	ldw	r5,28(r16)
 8004d20:	b480012e 	bgeu	r22,r18,8004d28 <__sfvwrite_r+0x88>
 8004d24:	01c10004 	movi	r7,1024
 8004d28:	80800917 	ldw	r2,36(r16)
 8004d2c:	103ee83a 	callr	r2
 8004d30:	00804c0e 	bge	zero,r2,8004e64 <__sfvwrite_r+0x1c4>
 8004d34:	98c00217 	ldw	r3,8(r19)
 8004d38:	a0a9883a 	add	r20,r20,r2
 8004d3c:	90a5c83a 	sub	r18,r18,r2
 8004d40:	1885c83a 	sub	r2,r3,r2
 8004d44:	98800215 	stw	r2,8(r19)
 8004d48:	103ff01e 	bne	r2,zero,8004d0c <__alt_data_end+0xfc004d0c>
 8004d4c:	0005883a 	mov	r2,zero
 8004d50:	dfc00b17 	ldw	ra,44(sp)
 8004d54:	df000a17 	ldw	fp,40(sp)
 8004d58:	ddc00917 	ldw	r23,36(sp)
 8004d5c:	dd800817 	ldw	r22,32(sp)
 8004d60:	dd400717 	ldw	r21,28(sp)
 8004d64:	dd000617 	ldw	r20,24(sp)
 8004d68:	dcc00517 	ldw	r19,20(sp)
 8004d6c:	dc800417 	ldw	r18,16(sp)
 8004d70:	dc400317 	ldw	r17,12(sp)
 8004d74:	dc000217 	ldw	r16,8(sp)
 8004d78:	dec00c04 	addi	sp,sp,48
 8004d7c:	f800283a 	ret
 8004d80:	a809883a 	mov	r4,r21
 8004d84:	800b883a 	mov	r5,r16
 8004d88:	80028e00 	call	80028e0 <__swsetup_r>
 8004d8c:	1000e81e 	bne	r2,zero,8005130 <__sfvwrite_r+0x490>
 8004d90:	8080030b 	ldhu	r2,12(r16)
 8004d94:	9c400017 	ldw	r17,0(r19)
 8004d98:	10c0008c 	andi	r3,r2,2
 8004d9c:	183fd81e 	bne	r3,zero,8004d00 <__alt_data_end+0xfc004d00>
 8004da0:	10c0004c 	andi	r3,r2,1
 8004da4:	002d883a 	mov	r22,zero
 8004da8:	1800331e 	bne	r3,zero,8004e78 <__sfvwrite_r+0x1d8>
 8004dac:	0025883a 	mov	r18,zero
 8004db0:	90001c26 	beq	r18,zero,8004e24 <__sfvwrite_r+0x184>
 8004db4:	10c0800c 	andi	r3,r2,512
 8004db8:	85000217 	ldw	r20,8(r16)
 8004dbc:	18006f26 	beq	r3,zero,8004f7c <__sfvwrite_r+0x2dc>
 8004dc0:	95008936 	bltu	r18,r20,8004fe8 <__sfvwrite_r+0x348>
 8004dc4:	10c1200c 	andi	r3,r2,1152
 8004dc8:	1800a11e 	bne	r3,zero,8005050 <__sfvwrite_r+0x3b0>
 8004dcc:	81000017 	ldw	r4,0(r16)
 8004dd0:	a02f883a 	mov	r23,r20
 8004dd4:	a039883a 	mov	fp,r20
 8004dd8:	9029883a 	mov	r20,r18
 8004ddc:	b00b883a 	mov	r5,r22
 8004de0:	b80d883a 	mov	r6,r23
 8004de4:	8005eec0 	call	8005eec <memmove>
 8004de8:	81400217 	ldw	r5,8(r16)
 8004dec:	81000017 	ldw	r4,0(r16)
 8004df0:	9005883a 	mov	r2,r18
 8004df4:	2f39c83a 	sub	fp,r5,fp
 8004df8:	25c7883a 	add	r3,r4,r23
 8004dfc:	87000215 	stw	fp,8(r16)
 8004e00:	80c00015 	stw	r3,0(r16)
 8004e04:	98c00217 	ldw	r3,8(r19)
 8004e08:	b0ad883a 	add	r22,r22,r2
 8004e0c:	90a5c83a 	sub	r18,r18,r2
 8004e10:	1d29c83a 	sub	r20,r3,r20
 8004e14:	9d000215 	stw	r20,8(r19)
 8004e18:	a03fcc26 	beq	r20,zero,8004d4c <__alt_data_end+0xfc004d4c>
 8004e1c:	8080030b 	ldhu	r2,12(r16)
 8004e20:	903fe41e 	bne	r18,zero,8004db4 <__alt_data_end+0xfc004db4>
 8004e24:	8d800017 	ldw	r22,0(r17)
 8004e28:	8c800117 	ldw	r18,4(r17)
 8004e2c:	8c400204 	addi	r17,r17,8
 8004e30:	003fdf06 	br	8004db0 <__alt_data_end+0xfc004db0>
 8004e34:	8d000017 	ldw	r20,0(r17)
 8004e38:	8c800117 	ldw	r18,4(r17)
 8004e3c:	8c400204 	addi	r17,r17,8
 8004e40:	003fb206 	br	8004d0c <__alt_data_end+0xfc004d0c>
 8004e44:	80071640 	call	8007164 <_realloc_r>
 8004e48:	1039883a 	mov	fp,r2
 8004e4c:	10009d1e 	bne	r2,zero,80050c4 <__sfvwrite_r+0x424>
 8004e50:	81400417 	ldw	r5,16(r16)
 8004e54:	a809883a 	mov	r4,r21
 8004e58:	80049d00 	call	80049d0 <_free_r>
 8004e5c:	00800304 	movi	r2,12
 8004e60:	a8800015 	stw	r2,0(r21)
 8004e64:	80c0030b 	ldhu	r3,12(r16)
 8004e68:	00bfffc4 	movi	r2,-1
 8004e6c:	18c01014 	ori	r3,r3,64
 8004e70:	80c0030d 	sth	r3,12(r16)
 8004e74:	003fb606 	br	8004d50 <__alt_data_end+0xfc004d50>
 8004e78:	0007883a 	mov	r3,zero
 8004e7c:	0039883a 	mov	fp,zero
 8004e80:	0025883a 	mov	r18,zero
 8004e84:	90001f26 	beq	r18,zero,8004f04 <__sfvwrite_r+0x264>
 8004e88:	18006826 	beq	r3,zero,800502c <__sfvwrite_r+0x38c>
 8004e8c:	b02f883a 	mov	r23,r22
 8004e90:	9580012e 	bgeu	r18,r22,8004e98 <__sfvwrite_r+0x1f8>
 8004e94:	902f883a 	mov	r23,r18
 8004e98:	81000017 	ldw	r4,0(r16)
 8004e9c:	80800417 	ldw	r2,16(r16)
 8004ea0:	b829883a 	mov	r20,r23
 8004ea4:	81800217 	ldw	r6,8(r16)
 8004ea8:	81c00517 	ldw	r7,20(r16)
 8004eac:	1100022e 	bgeu	r2,r4,8004eb8 <__sfvwrite_r+0x218>
 8004eb0:	31d1883a 	add	r8,r6,r7
 8004eb4:	45c01816 	blt	r8,r23,8004f18 <__sfvwrite_r+0x278>
 8004eb8:	b9c03f16 	blt	r23,r7,8004fb8 <__sfvwrite_r+0x318>
 8004ebc:	80800917 	ldw	r2,36(r16)
 8004ec0:	81400717 	ldw	r5,28(r16)
 8004ec4:	a809883a 	mov	r4,r21
 8004ec8:	d8c00115 	stw	r3,4(sp)
 8004ecc:	e00d883a 	mov	r6,fp
 8004ed0:	103ee83a 	callr	r2
 8004ed4:	1029883a 	mov	r20,r2
 8004ed8:	d8c00117 	ldw	r3,4(sp)
 8004edc:	00bfe10e 	bge	zero,r2,8004e64 <__alt_data_end+0xfc004e64>
 8004ee0:	b52dc83a 	sub	r22,r22,r20
 8004ee4:	b0001f26 	beq	r22,zero,8004f64 <__sfvwrite_r+0x2c4>
 8004ee8:	98800217 	ldw	r2,8(r19)
 8004eec:	e539883a 	add	fp,fp,r20
 8004ef0:	9525c83a 	sub	r18,r18,r20
 8004ef4:	1529c83a 	sub	r20,r2,r20
 8004ef8:	9d000215 	stw	r20,8(r19)
 8004efc:	a03f9326 	beq	r20,zero,8004d4c <__alt_data_end+0xfc004d4c>
 8004f00:	903fe11e 	bne	r18,zero,8004e88 <__alt_data_end+0xfc004e88>
 8004f04:	8f000017 	ldw	fp,0(r17)
 8004f08:	8c800117 	ldw	r18,4(r17)
 8004f0c:	0007883a 	mov	r3,zero
 8004f10:	8c400204 	addi	r17,r17,8
 8004f14:	003fdb06 	br	8004e84 <__alt_data_end+0xfc004e84>
 8004f18:	400d883a 	mov	r6,r8
 8004f1c:	e00b883a 	mov	r5,fp
 8004f20:	d8c00115 	stw	r3,4(sp)
 8004f24:	da000015 	stw	r8,0(sp)
 8004f28:	8005eec0 	call	8005eec <memmove>
 8004f2c:	da000017 	ldw	r8,0(sp)
 8004f30:	80800017 	ldw	r2,0(r16)
 8004f34:	a809883a 	mov	r4,r21
 8004f38:	800b883a 	mov	r5,r16
 8004f3c:	1205883a 	add	r2,r2,r8
 8004f40:	80800015 	stw	r2,0(r16)
 8004f44:	da000015 	stw	r8,0(sp)
 8004f48:	800427c0 	call	800427c <_fflush_r>
 8004f4c:	d8c00117 	ldw	r3,4(sp)
 8004f50:	da000017 	ldw	r8,0(sp)
 8004f54:	103fc31e 	bne	r2,zero,8004e64 <__alt_data_end+0xfc004e64>
 8004f58:	4029883a 	mov	r20,r8
 8004f5c:	b52dc83a 	sub	r22,r22,r20
 8004f60:	b03fe11e 	bne	r22,zero,8004ee8 <__alt_data_end+0xfc004ee8>
 8004f64:	a809883a 	mov	r4,r21
 8004f68:	800b883a 	mov	r5,r16
 8004f6c:	800427c0 	call	800427c <_fflush_r>
 8004f70:	103fbc1e 	bne	r2,zero,8004e64 <__alt_data_end+0xfc004e64>
 8004f74:	0007883a 	mov	r3,zero
 8004f78:	003fdb06 	br	8004ee8 <__alt_data_end+0xfc004ee8>
 8004f7c:	81000017 	ldw	r4,0(r16)
 8004f80:	80800417 	ldw	r2,16(r16)
 8004f84:	1100012e 	bgeu	r2,r4,8004f8c <__sfvwrite_r+0x2ec>
 8004f88:	a4805836 	bltu	r20,r18,80050ec <__sfvwrite_r+0x44c>
 8004f8c:	81c00517 	ldw	r7,20(r16)
 8004f90:	91c01a36 	bltu	r18,r7,8004ffc <__sfvwrite_r+0x35c>
 8004f94:	80800917 	ldw	r2,36(r16)
 8004f98:	81400717 	ldw	r5,28(r16)
 8004f9c:	a809883a 	mov	r4,r21
 8004fa0:	b00d883a 	mov	r6,r22
 8004fa4:	103ee83a 	callr	r2
 8004fa8:	1029883a 	mov	r20,r2
 8004fac:	00bfad0e 	bge	zero,r2,8004e64 <__alt_data_end+0xfc004e64>
 8004fb0:	a005883a 	mov	r2,r20
 8004fb4:	003f9306 	br	8004e04 <__alt_data_end+0xfc004e04>
 8004fb8:	b80d883a 	mov	r6,r23
 8004fbc:	e00b883a 	mov	r5,fp
 8004fc0:	d8c00115 	stw	r3,4(sp)
 8004fc4:	8005eec0 	call	8005eec <memmove>
 8004fc8:	80800217 	ldw	r2,8(r16)
 8004fcc:	81000017 	ldw	r4,0(r16)
 8004fd0:	d8c00117 	ldw	r3,4(sp)
 8004fd4:	15c5c83a 	sub	r2,r2,r23
 8004fd8:	25ef883a 	add	r23,r4,r23
 8004fdc:	80800215 	stw	r2,8(r16)
 8004fe0:	85c00015 	stw	r23,0(r16)
 8004fe4:	003fbe06 	br	8004ee0 <__alt_data_end+0xfc004ee0>
 8004fe8:	81000017 	ldw	r4,0(r16)
 8004fec:	9039883a 	mov	fp,r18
 8004ff0:	9029883a 	mov	r20,r18
 8004ff4:	902f883a 	mov	r23,r18
 8004ff8:	003f7806 	br	8004ddc <__alt_data_end+0xfc004ddc>
 8004ffc:	b00b883a 	mov	r5,r22
 8005000:	900d883a 	mov	r6,r18
 8005004:	8005eec0 	call	8005eec <memmove>
 8005008:	80c00217 	ldw	r3,8(r16)
 800500c:	80800017 	ldw	r2,0(r16)
 8005010:	9029883a 	mov	r20,r18
 8005014:	1c87c83a 	sub	r3,r3,r18
 8005018:	1485883a 	add	r2,r2,r18
 800501c:	80800015 	stw	r2,0(r16)
 8005020:	80c00215 	stw	r3,8(r16)
 8005024:	9005883a 	mov	r2,r18
 8005028:	003f7606 	br	8004e04 <__alt_data_end+0xfc004e04>
 800502c:	e009883a 	mov	r4,fp
 8005030:	01400284 	movi	r5,10
 8005034:	900d883a 	mov	r6,r18
 8005038:	8005cf80 	call	8005cf8 <memchr>
 800503c:	10003926 	beq	r2,zero,8005124 <__sfvwrite_r+0x484>
 8005040:	15800044 	addi	r22,r2,1
 8005044:	b72dc83a 	sub	r22,r22,fp
 8005048:	00c00044 	movi	r3,1
 800504c:	003f8f06 	br	8004e8c <__alt_data_end+0xfc004e8c>
 8005050:	81000517 	ldw	r4,20(r16)
 8005054:	81400417 	ldw	r5,16(r16)
 8005058:	80c00017 	ldw	r3,0(r16)
 800505c:	210d883a 	add	r6,r4,r4
 8005060:	3109883a 	add	r4,r6,r4
 8005064:	2028d7fa 	srli	r20,r4,31
 8005068:	196fc83a 	sub	r23,r3,r5
 800506c:	b9800044 	addi	r6,r23,1
 8005070:	a109883a 	add	r4,r20,r4
 8005074:	2029d07a 	srai	r20,r4,1
 8005078:	348d883a 	add	r6,r6,r18
 800507c:	a180272e 	bgeu	r20,r6,800511c <__sfvwrite_r+0x47c>
 8005080:	3029883a 	mov	r20,r6
 8005084:	1081000c 	andi	r2,r2,1024
 8005088:	a809883a 	mov	r4,r21
 800508c:	103f6d26 	beq	r2,zero,8004e44 <__alt_data_end+0xfc004e44>
 8005090:	300b883a 	mov	r5,r6
 8005094:	80055340 	call	8005534 <_malloc_r>
 8005098:	1039883a 	mov	fp,r2
 800509c:	103f6f26 	beq	r2,zero,8004e5c <__alt_data_end+0xfc004e5c>
 80050a0:	81400417 	ldw	r5,16(r16)
 80050a4:	1009883a 	mov	r4,r2
 80050a8:	b80d883a 	mov	r6,r23
 80050ac:	8005de00 	call	8005de0 <memcpy>
 80050b0:	8080030b 	ldhu	r2,12(r16)
 80050b4:	00fedfc4 	movi	r3,-1153
 80050b8:	10c4703a 	and	r2,r2,r3
 80050bc:	10802014 	ori	r2,r2,128
 80050c0:	8080030d 	sth	r2,12(r16)
 80050c4:	e5c9883a 	add	r4,fp,r23
 80050c8:	a5c7c83a 	sub	r3,r20,r23
 80050cc:	87000415 	stw	fp,16(r16)
 80050d0:	85000515 	stw	r20,20(r16)
 80050d4:	81000015 	stw	r4,0(r16)
 80050d8:	9039883a 	mov	fp,r18
 80050dc:	80c00215 	stw	r3,8(r16)
 80050e0:	9029883a 	mov	r20,r18
 80050e4:	902f883a 	mov	r23,r18
 80050e8:	003f3c06 	br	8004ddc <__alt_data_end+0xfc004ddc>
 80050ec:	b00b883a 	mov	r5,r22
 80050f0:	a00d883a 	mov	r6,r20
 80050f4:	8005eec0 	call	8005eec <memmove>
 80050f8:	80800017 	ldw	r2,0(r16)
 80050fc:	a809883a 	mov	r4,r21
 8005100:	800b883a 	mov	r5,r16
 8005104:	1505883a 	add	r2,r2,r20
 8005108:	80800015 	stw	r2,0(r16)
 800510c:	800427c0 	call	800427c <_fflush_r>
 8005110:	103f541e 	bne	r2,zero,8004e64 <__alt_data_end+0xfc004e64>
 8005114:	a005883a 	mov	r2,r20
 8005118:	003f3a06 	br	8004e04 <__alt_data_end+0xfc004e04>
 800511c:	a00d883a 	mov	r6,r20
 8005120:	003fd806 	br	8005084 <__alt_data_end+0xfc005084>
 8005124:	95800044 	addi	r22,r18,1
 8005128:	00c00044 	movi	r3,1
 800512c:	003f5706 	br	8004e8c <__alt_data_end+0xfc004e8c>
 8005130:	80c0030b 	ldhu	r3,12(r16)
 8005134:	00bfffc4 	movi	r2,-1
 8005138:	18c01014 	ori	r3,r3,64
 800513c:	80c0030d 	sth	r3,12(r16)
 8005140:	00c00244 	movi	r3,9
 8005144:	a8c00015 	stw	r3,0(r21)
 8005148:	003f0106 	br	8004d50 <__alt_data_end+0xfc004d50>

0800514c <_fwalk>:
 800514c:	defff904 	addi	sp,sp,-28
 8005150:	dcc00315 	stw	r19,12(sp)
 8005154:	24c0b804 	addi	r19,r4,736
 8005158:	dd400515 	stw	r21,20(sp)
 800515c:	dd000415 	stw	r20,16(sp)
 8005160:	dfc00615 	stw	ra,24(sp)
 8005164:	dc800215 	stw	r18,8(sp)
 8005168:	dc400115 	stw	r17,4(sp)
 800516c:	dc000015 	stw	r16,0(sp)
 8005170:	282b883a 	mov	r21,r5
 8005174:	0029883a 	mov	r20,zero
 8005178:	80048540 	call	8004854 <__sfp_lock_acquire>
 800517c:	98001226 	beq	r19,zero,80051c8 <_fwalk+0x7c>
 8005180:	04bfffc4 	movi	r18,-1
 8005184:	9c400117 	ldw	r17,4(r19)
 8005188:	9c000217 	ldw	r16,8(r19)
 800518c:	8c7fffc4 	addi	r17,r17,-1
 8005190:	88000b16 	blt	r17,zero,80051c0 <_fwalk+0x74>
 8005194:	84000304 	addi	r16,r16,12
 8005198:	80c0000f 	ldh	r3,0(r16)
 800519c:	8c7fffc4 	addi	r17,r17,-1
 80051a0:	813ffd04 	addi	r4,r16,-12
 80051a4:	18000426 	beq	r3,zero,80051b8 <_fwalk+0x6c>
 80051a8:	80c0008f 	ldh	r3,2(r16)
 80051ac:	1c800226 	beq	r3,r18,80051b8 <_fwalk+0x6c>
 80051b0:	a83ee83a 	callr	r21
 80051b4:	a0a8b03a 	or	r20,r20,r2
 80051b8:	84001a04 	addi	r16,r16,104
 80051bc:	8cbff61e 	bne	r17,r18,8005198 <__alt_data_end+0xfc005198>
 80051c0:	9cc00017 	ldw	r19,0(r19)
 80051c4:	983fef1e 	bne	r19,zero,8005184 <__alt_data_end+0xfc005184>
 80051c8:	80048580 	call	8004858 <__sfp_lock_release>
 80051cc:	a005883a 	mov	r2,r20
 80051d0:	dfc00617 	ldw	ra,24(sp)
 80051d4:	dd400517 	ldw	r21,20(sp)
 80051d8:	dd000417 	ldw	r20,16(sp)
 80051dc:	dcc00317 	ldw	r19,12(sp)
 80051e0:	dc800217 	ldw	r18,8(sp)
 80051e4:	dc400117 	ldw	r17,4(sp)
 80051e8:	dc000017 	ldw	r16,0(sp)
 80051ec:	dec00704 	addi	sp,sp,28
 80051f0:	f800283a 	ret

080051f4 <_fwalk_reent>:
 80051f4:	defff804 	addi	sp,sp,-32
 80051f8:	dcc00315 	stw	r19,12(sp)
 80051fc:	24c0b804 	addi	r19,r4,736
 8005200:	dd800615 	stw	r22,24(sp)
 8005204:	dd400515 	stw	r21,20(sp)
 8005208:	dd000415 	stw	r20,16(sp)
 800520c:	dfc00715 	stw	ra,28(sp)
 8005210:	dc800215 	stw	r18,8(sp)
 8005214:	dc400115 	stw	r17,4(sp)
 8005218:	dc000015 	stw	r16,0(sp)
 800521c:	2029883a 	mov	r20,r4
 8005220:	282b883a 	mov	r21,r5
 8005224:	002d883a 	mov	r22,zero
 8005228:	80048540 	call	8004854 <__sfp_lock_acquire>
 800522c:	98001326 	beq	r19,zero,800527c <_fwalk_reent+0x88>
 8005230:	04bfffc4 	movi	r18,-1
 8005234:	9c400117 	ldw	r17,4(r19)
 8005238:	9c000217 	ldw	r16,8(r19)
 800523c:	8c7fffc4 	addi	r17,r17,-1
 8005240:	88000c16 	blt	r17,zero,8005274 <_fwalk_reent+0x80>
 8005244:	84000304 	addi	r16,r16,12
 8005248:	80c0000f 	ldh	r3,0(r16)
 800524c:	8c7fffc4 	addi	r17,r17,-1
 8005250:	817ffd04 	addi	r5,r16,-12
 8005254:	18000526 	beq	r3,zero,800526c <_fwalk_reent+0x78>
 8005258:	80c0008f 	ldh	r3,2(r16)
 800525c:	a009883a 	mov	r4,r20
 8005260:	1c800226 	beq	r3,r18,800526c <_fwalk_reent+0x78>
 8005264:	a83ee83a 	callr	r21
 8005268:	b0acb03a 	or	r22,r22,r2
 800526c:	84001a04 	addi	r16,r16,104
 8005270:	8cbff51e 	bne	r17,r18,8005248 <__alt_data_end+0xfc005248>
 8005274:	9cc00017 	ldw	r19,0(r19)
 8005278:	983fee1e 	bne	r19,zero,8005234 <__alt_data_end+0xfc005234>
 800527c:	80048580 	call	8004858 <__sfp_lock_release>
 8005280:	b005883a 	mov	r2,r22
 8005284:	dfc00717 	ldw	ra,28(sp)
 8005288:	dd800617 	ldw	r22,24(sp)
 800528c:	dd400517 	ldw	r21,20(sp)
 8005290:	dd000417 	ldw	r20,16(sp)
 8005294:	dcc00317 	ldw	r19,12(sp)
 8005298:	dc800217 	ldw	r18,8(sp)
 800529c:	dc400117 	ldw	r17,4(sp)
 80052a0:	dc000017 	ldw	r16,0(sp)
 80052a4:	dec00804 	addi	sp,sp,32
 80052a8:	f800283a 	ret

080052ac <_setlocale_r>:
 80052ac:	defffe04 	addi	sp,sp,-8
 80052b0:	dc000015 	stw	r16,0(sp)
 80052b4:	dfc00115 	stw	ra,4(sp)
 80052b8:	3021883a 	mov	r16,r6
 80052bc:	30000526 	beq	r6,zero,80052d4 <_setlocale_r+0x28>
 80052c0:	3009883a 	mov	r4,r6
 80052c4:	01420074 	movhi	r5,2049
 80052c8:	297ee904 	addi	r5,r5,-1116
 80052cc:	80078d00 	call	80078d0 <strcmp>
 80052d0:	1000061e 	bne	r2,zero,80052ec <_setlocale_r+0x40>
 80052d4:	00820074 	movhi	r2,2049
 80052d8:	10bee804 	addi	r2,r2,-1120
 80052dc:	dfc00117 	ldw	ra,4(sp)
 80052e0:	dc000017 	ldw	r16,0(sp)
 80052e4:	dec00204 	addi	sp,sp,8
 80052e8:	f800283a 	ret
 80052ec:	8009883a 	mov	r4,r16
 80052f0:	01420074 	movhi	r5,2049
 80052f4:	297ee804 	addi	r5,r5,-1120
 80052f8:	80078d00 	call	80078d0 <strcmp>
 80052fc:	103ff526 	beq	r2,zero,80052d4 <__alt_data_end+0xfc0052d4>
 8005300:	8009883a 	mov	r4,r16
 8005304:	01420074 	movhi	r5,2049
 8005308:	297ed304 	addi	r5,r5,-1204
 800530c:	80078d00 	call	80078d0 <strcmp>
 8005310:	103ff026 	beq	r2,zero,80052d4 <__alt_data_end+0xfc0052d4>
 8005314:	0005883a 	mov	r2,zero
 8005318:	003ff006 	br	80052dc <__alt_data_end+0xfc0052dc>

0800531c <__locale_charset>:
 800531c:	00820074 	movhi	r2,2049
 8005320:	1080a104 	addi	r2,r2,644
 8005324:	f800283a 	ret

08005328 <__locale_mb_cur_max>:
 8005328:	00820074 	movhi	r2,2049
 800532c:	10864804 	addi	r2,r2,6432
 8005330:	10800017 	ldw	r2,0(r2)
 8005334:	f800283a 	ret

08005338 <__locale_msgcharset>:
 8005338:	00820074 	movhi	r2,2049
 800533c:	10809904 	addi	r2,r2,612
 8005340:	f800283a 	ret

08005344 <__locale_cjk_lang>:
 8005344:	0005883a 	mov	r2,zero
 8005348:	f800283a 	ret

0800534c <_localeconv_r>:
 800534c:	00820074 	movhi	r2,2049
 8005350:	1080a904 	addi	r2,r2,676
 8005354:	f800283a 	ret

08005358 <setlocale>:
 8005358:	00c20074 	movhi	r3,2049
 800535c:	18c64704 	addi	r3,r3,6428
 8005360:	2005883a 	mov	r2,r4
 8005364:	19000017 	ldw	r4,0(r3)
 8005368:	280d883a 	mov	r6,r5
 800536c:	100b883a 	mov	r5,r2
 8005370:	80052ac1 	jmpi	80052ac <_setlocale_r>

08005374 <localeconv>:
 8005374:	00820074 	movhi	r2,2049
 8005378:	1080a904 	addi	r2,r2,676
 800537c:	f800283a 	ret

08005380 <__smakebuf_r>:
 8005380:	2880030b 	ldhu	r2,12(r5)
 8005384:	deffec04 	addi	sp,sp,-80
 8005388:	dc000f15 	stw	r16,60(sp)
 800538c:	dfc01315 	stw	ra,76(sp)
 8005390:	dcc01215 	stw	r19,72(sp)
 8005394:	dc801115 	stw	r18,68(sp)
 8005398:	dc401015 	stw	r17,64(sp)
 800539c:	10c0008c 	andi	r3,r2,2
 80053a0:	2821883a 	mov	r16,r5
 80053a4:	18003a1e 	bne	r3,zero,8005490 <__smakebuf_r+0x110>
 80053a8:	2940038f 	ldh	r5,14(r5)
 80053ac:	2023883a 	mov	r17,r4
 80053b0:	28001b16 	blt	r5,zero,8005420 <__smakebuf_r+0xa0>
 80053b4:	d80d883a 	mov	r6,sp
 80053b8:	80093d40 	call	80093d4 <_fstat_r>
 80053bc:	10001716 	blt	r2,zero,800541c <__smakebuf_r+0x9c>
 80053c0:	d8800117 	ldw	r2,4(sp)
 80053c4:	00e00014 	movui	r3,32768
 80053c8:	10bc000c 	andi	r2,r2,61440
 80053cc:	10c03e26 	beq	r2,r3,80054c8 <__smakebuf_r+0x148>
 80053d0:	80c0030b 	ldhu	r3,12(r16)
 80053d4:	18c20014 	ori	r3,r3,2048
 80053d8:	80c0030d 	sth	r3,12(r16)
 80053dc:	00c80004 	movi	r3,8192
 80053e0:	10c0431e 	bne	r2,r3,80054f0 <__smakebuf_r+0x170>
 80053e4:	8140038f 	ldh	r5,14(r16)
 80053e8:	8809883a 	mov	r4,r17
 80053ec:	800943c0 	call	800943c <_isatty_r>
 80053f0:	10004d26 	beq	r2,zero,8005528 <__smakebuf_r+0x1a8>
 80053f4:	80c0030b 	ldhu	r3,12(r16)
 80053f8:	04c00044 	movi	r19,1
 80053fc:	808010c4 	addi	r2,r16,67
 8005400:	1cc6b03a 	or	r3,r3,r19
 8005404:	80c0030d 	sth	r3,12(r16)
 8005408:	80800015 	stw	r2,0(r16)
 800540c:	80800415 	stw	r2,16(r16)
 8005410:	84c00515 	stw	r19,20(r16)
 8005414:	04810004 	movi	r18,1024
 8005418:	00000706 	br	8005438 <__smakebuf_r+0xb8>
 800541c:	8080030b 	ldhu	r2,12(r16)
 8005420:	10c0200c 	andi	r3,r2,128
 8005424:	1800261e 	bne	r3,zero,80054c0 <__smakebuf_r+0x140>
 8005428:	04810004 	movi	r18,1024
 800542c:	10820014 	ori	r2,r2,2048
 8005430:	8080030d 	sth	r2,12(r16)
 8005434:	0027883a 	mov	r19,zero
 8005438:	8809883a 	mov	r4,r17
 800543c:	900b883a 	mov	r5,r18
 8005440:	80055340 	call	8005534 <_malloc_r>
 8005444:	10002d26 	beq	r2,zero,80054fc <__smakebuf_r+0x17c>
 8005448:	80c0030b 	ldhu	r3,12(r16)
 800544c:	01020034 	movhi	r4,2048
 8005450:	21114004 	addi	r4,r4,17664
 8005454:	89000f15 	stw	r4,60(r17)
 8005458:	18c02014 	ori	r3,r3,128
 800545c:	80c0030d 	sth	r3,12(r16)
 8005460:	80800015 	stw	r2,0(r16)
 8005464:	80800415 	stw	r2,16(r16)
 8005468:	84800515 	stw	r18,20(r16)
 800546c:	98000d26 	beq	r19,zero,80054a4 <__smakebuf_r+0x124>
 8005470:	8140038f 	ldh	r5,14(r16)
 8005474:	8809883a 	mov	r4,r17
 8005478:	800943c0 	call	800943c <_isatty_r>
 800547c:	10000926 	beq	r2,zero,80054a4 <__smakebuf_r+0x124>
 8005480:	8080030b 	ldhu	r2,12(r16)
 8005484:	10800054 	ori	r2,r2,1
 8005488:	8080030d 	sth	r2,12(r16)
 800548c:	00000506 	br	80054a4 <__smakebuf_r+0x124>
 8005490:	288010c4 	addi	r2,r5,67
 8005494:	28800015 	stw	r2,0(r5)
 8005498:	28800415 	stw	r2,16(r5)
 800549c:	00800044 	movi	r2,1
 80054a0:	28800515 	stw	r2,20(r5)
 80054a4:	dfc01317 	ldw	ra,76(sp)
 80054a8:	dcc01217 	ldw	r19,72(sp)
 80054ac:	dc801117 	ldw	r18,68(sp)
 80054b0:	dc401017 	ldw	r17,64(sp)
 80054b4:	dc000f17 	ldw	r16,60(sp)
 80054b8:	dec01404 	addi	sp,sp,80
 80054bc:	f800283a 	ret
 80054c0:	04801004 	movi	r18,64
 80054c4:	003fd906 	br	800542c <__alt_data_end+0xfc00542c>
 80054c8:	81000a17 	ldw	r4,40(r16)
 80054cc:	00c20034 	movhi	r3,2048
 80054d0:	18de1b04 	addi	r3,r3,30828
 80054d4:	20ffbe1e 	bne	r4,r3,80053d0 <__alt_data_end+0xfc0053d0>
 80054d8:	80c0030b 	ldhu	r3,12(r16)
 80054dc:	01010004 	movi	r4,1024
 80054e0:	81001315 	stw	r4,76(r16)
 80054e4:	1906b03a 	or	r3,r3,r4
 80054e8:	80c0030d 	sth	r3,12(r16)
 80054ec:	003fbb06 	br	80053dc <__alt_data_end+0xfc0053dc>
 80054f0:	0027883a 	mov	r19,zero
 80054f4:	04810004 	movi	r18,1024
 80054f8:	003fcf06 	br	8005438 <__alt_data_end+0xfc005438>
 80054fc:	8080030b 	ldhu	r2,12(r16)
 8005500:	10c0800c 	andi	r3,r2,512
 8005504:	183fe71e 	bne	r3,zero,80054a4 <__alt_data_end+0xfc0054a4>
 8005508:	10800094 	ori	r2,r2,2
 800550c:	80c010c4 	addi	r3,r16,67
 8005510:	8080030d 	sth	r2,12(r16)
 8005514:	00800044 	movi	r2,1
 8005518:	80c00015 	stw	r3,0(r16)
 800551c:	80c00415 	stw	r3,16(r16)
 8005520:	80800515 	stw	r2,20(r16)
 8005524:	003fdf06 	br	80054a4 <__alt_data_end+0xfc0054a4>
 8005528:	04c00044 	movi	r19,1
 800552c:	04810004 	movi	r18,1024
 8005530:	003fc106 	br	8005438 <__alt_data_end+0xfc005438>

08005534 <_malloc_r>:
 8005534:	defff504 	addi	sp,sp,-44
 8005538:	dc800315 	stw	r18,12(sp)
 800553c:	dfc00a15 	stw	ra,40(sp)
 8005540:	df000915 	stw	fp,36(sp)
 8005544:	ddc00815 	stw	r23,32(sp)
 8005548:	dd800715 	stw	r22,28(sp)
 800554c:	dd400615 	stw	r21,24(sp)
 8005550:	dd000515 	stw	r20,20(sp)
 8005554:	dcc00415 	stw	r19,16(sp)
 8005558:	dc400215 	stw	r17,8(sp)
 800555c:	dc000115 	stw	r16,4(sp)
 8005560:	288002c4 	addi	r2,r5,11
 8005564:	00c00584 	movi	r3,22
 8005568:	2025883a 	mov	r18,r4
 800556c:	18802b2e 	bgeu	r3,r2,800561c <_malloc_r+0xe8>
 8005570:	047ffe04 	movi	r17,-8
 8005574:	1462703a 	and	r17,r2,r17
 8005578:	88002a16 	blt	r17,zero,8005624 <_malloc_r+0xf0>
 800557c:	89402936 	bltu	r17,r5,8005624 <_malloc_r+0xf0>
 8005580:	9009883a 	mov	r4,r18
 8005584:	800d4280 	call	800d428 <__malloc_lock>
 8005588:	00807dc4 	movi	r2,503
 800558c:	14402936 	bltu	r2,r17,8005634 <_malloc_r+0x100>
 8005590:	8808d0fa 	srli	r4,r17,3
 8005594:	04c20074 	movhi	r19,2049
 8005598:	9cc0b704 	addi	r19,r19,732
 800559c:	2105883a 	add	r2,r4,r4
 80055a0:	1085883a 	add	r2,r2,r2
 80055a4:	1085883a 	add	r2,r2,r2
 80055a8:	9885883a 	add	r2,r19,r2
 80055ac:	14000317 	ldw	r16,12(r2)
 80055b0:	80815226 	beq	r16,r2,8005afc <_malloc_r+0x5c8>
 80055b4:	81000117 	ldw	r4,4(r16)
 80055b8:	00bfff04 	movi	r2,-4
 80055bc:	80c00317 	ldw	r3,12(r16)
 80055c0:	2084703a 	and	r2,r4,r2
 80055c4:	8085883a 	add	r2,r16,r2
 80055c8:	81000217 	ldw	r4,8(r16)
 80055cc:	11400117 	ldw	r5,4(r2)
 80055d0:	20c00315 	stw	r3,12(r4)
 80055d4:	19000215 	stw	r4,8(r3)
 80055d8:	28c00054 	ori	r3,r5,1
 80055dc:	10c00115 	stw	r3,4(r2)
 80055e0:	9009883a 	mov	r4,r18
 80055e4:	800d4480 	call	800d448 <__malloc_unlock>
 80055e8:	80800204 	addi	r2,r16,8
 80055ec:	dfc00a17 	ldw	ra,40(sp)
 80055f0:	df000917 	ldw	fp,36(sp)
 80055f4:	ddc00817 	ldw	r23,32(sp)
 80055f8:	dd800717 	ldw	r22,28(sp)
 80055fc:	dd400617 	ldw	r21,24(sp)
 8005600:	dd000517 	ldw	r20,20(sp)
 8005604:	dcc00417 	ldw	r19,16(sp)
 8005608:	dc800317 	ldw	r18,12(sp)
 800560c:	dc400217 	ldw	r17,8(sp)
 8005610:	dc000117 	ldw	r16,4(sp)
 8005614:	dec00b04 	addi	sp,sp,44
 8005618:	f800283a 	ret
 800561c:	04400404 	movi	r17,16
 8005620:	897fd72e 	bgeu	r17,r5,8005580 <__alt_data_end+0xfc005580>
 8005624:	00800304 	movi	r2,12
 8005628:	90800015 	stw	r2,0(r18)
 800562c:	0005883a 	mov	r2,zero
 8005630:	003fee06 	br	80055ec <__alt_data_end+0xfc0055ec>
 8005634:	8808d27a 	srli	r4,r17,9
 8005638:	20007126 	beq	r4,zero,8005800 <_malloc_r+0x2cc>
 800563c:	00800104 	movi	r2,4
 8005640:	1100f536 	bltu	r2,r4,8005a18 <_malloc_r+0x4e4>
 8005644:	8808d1ba 	srli	r4,r17,6
 8005648:	21000e04 	addi	r4,r4,56
 800564c:	210b883a 	add	r5,r4,r4
 8005650:	294b883a 	add	r5,r5,r5
 8005654:	294b883a 	add	r5,r5,r5
 8005658:	04c20074 	movhi	r19,2049
 800565c:	9cc0b704 	addi	r19,r19,732
 8005660:	994b883a 	add	r5,r19,r5
 8005664:	2c000317 	ldw	r16,12(r5)
 8005668:	2c000e26 	beq	r5,r16,80056a4 <_malloc_r+0x170>
 800566c:	80c00117 	ldw	r3,4(r16)
 8005670:	01ffff04 	movi	r7,-4
 8005674:	018003c4 	movi	r6,15
 8005678:	19c6703a 	and	r3,r3,r7
 800567c:	1c45c83a 	sub	r2,r3,r17
 8005680:	30800716 	blt	r6,r2,80056a0 <_malloc_r+0x16c>
 8005684:	1000610e 	bge	r2,zero,800580c <_malloc_r+0x2d8>
 8005688:	84000317 	ldw	r16,12(r16)
 800568c:	2c000526 	beq	r5,r16,80056a4 <_malloc_r+0x170>
 8005690:	80c00117 	ldw	r3,4(r16)
 8005694:	19c6703a 	and	r3,r3,r7
 8005698:	1c45c83a 	sub	r2,r3,r17
 800569c:	30bff90e 	bge	r6,r2,8005684 <__alt_data_end+0xfc005684>
 80056a0:	213fffc4 	addi	r4,r4,-1
 80056a4:	21000044 	addi	r4,r4,1
 80056a8:	9c000417 	ldw	r16,16(r19)
 80056ac:	00c20074 	movhi	r3,2049
 80056b0:	18c0b704 	addi	r3,r3,732
 80056b4:	1a400204 	addi	r9,r3,8
 80056b8:	82410926 	beq	r16,r9,8005ae0 <_malloc_r+0x5ac>
 80056bc:	81400117 	ldw	r5,4(r16)
 80056c0:	00bfff04 	movi	r2,-4
 80056c4:	018003c4 	movi	r6,15
 80056c8:	2884703a 	and	r2,r5,r2
 80056cc:	144bc83a 	sub	r5,r2,r17
 80056d0:	3140f416 	blt	r6,r5,8005aa4 <_malloc_r+0x570>
 80056d4:	1a400515 	stw	r9,20(r3)
 80056d8:	1a400415 	stw	r9,16(r3)
 80056dc:	2800570e 	bge	r5,zero,800583c <_malloc_r+0x308>
 80056e0:	01407fc4 	movi	r5,511
 80056e4:	2880d436 	bltu	r5,r2,8005a38 <_malloc_r+0x504>
 80056e8:	1004d0fa 	srli	r2,r2,3
 80056ec:	02000044 	movi	r8,1
 80056f0:	19c00117 	ldw	r7,4(r3)
 80056f4:	108b883a 	add	r5,r2,r2
 80056f8:	294b883a 	add	r5,r5,r5
 80056fc:	1005d0ba 	srai	r2,r2,2
 8005700:	294b883a 	add	r5,r5,r5
 8005704:	28cb883a 	add	r5,r5,r3
 8005708:	29800217 	ldw	r6,8(r5)
 800570c:	4084983a 	sll	r2,r8,r2
 8005710:	81400315 	stw	r5,12(r16)
 8005714:	81800215 	stw	r6,8(r16)
 8005718:	11c4b03a 	or	r2,r2,r7
 800571c:	2c000215 	stw	r16,8(r5)
 8005720:	18800115 	stw	r2,4(r3)
 8005724:	34000315 	stw	r16,12(r6)
 8005728:	2007d0ba 	srai	r3,r4,2
 800572c:	01400044 	movi	r5,1
 8005730:	28ca983a 	sll	r5,r5,r3
 8005734:	11404936 	bltu	r2,r5,800585c <_malloc_r+0x328>
 8005738:	1146703a 	and	r3,r2,r5
 800573c:	18000a1e 	bne	r3,zero,8005768 <_malloc_r+0x234>
 8005740:	00ffff04 	movi	r3,-4
 8005744:	294b883a 	add	r5,r5,r5
 8005748:	20c8703a 	and	r4,r4,r3
 800574c:	1146703a 	and	r3,r2,r5
 8005750:	21000104 	addi	r4,r4,4
 8005754:	1800041e 	bne	r3,zero,8005768 <_malloc_r+0x234>
 8005758:	294b883a 	add	r5,r5,r5
 800575c:	1146703a 	and	r3,r2,r5
 8005760:	21000104 	addi	r4,r4,4
 8005764:	183ffc26 	beq	r3,zero,8005758 <__alt_data_end+0xfc005758>
 8005768:	023fff04 	movi	r8,-4
 800576c:	01c003c4 	movi	r7,15
 8005770:	2105883a 	add	r2,r4,r4
 8005774:	1085883a 	add	r2,r2,r2
 8005778:	1085883a 	add	r2,r2,r2
 800577c:	9897883a 	add	r11,r19,r2
 8005780:	5a800304 	addi	r10,r11,12
 8005784:	2019883a 	mov	r12,r4
 8005788:	54000017 	ldw	r16,0(r10)
 800578c:	51bffd04 	addi	r6,r10,-12
 8005790:	8180041e 	bne	r16,r6,80057a4 <_malloc_r+0x270>
 8005794:	0000d406 	br	8005ae8 <_malloc_r+0x5b4>
 8005798:	1000dd0e 	bge	r2,zero,8005b10 <_malloc_r+0x5dc>
 800579c:	84000317 	ldw	r16,12(r16)
 80057a0:	8180d126 	beq	r16,r6,8005ae8 <_malloc_r+0x5b4>
 80057a4:	80c00117 	ldw	r3,4(r16)
 80057a8:	1a06703a 	and	r3,r3,r8
 80057ac:	1c45c83a 	sub	r2,r3,r17
 80057b0:	38bff90e 	bge	r7,r2,8005798 <__alt_data_end+0xfc005798>
 80057b4:	80c00317 	ldw	r3,12(r16)
 80057b8:	81000217 	ldw	r4,8(r16)
 80057bc:	89400054 	ori	r5,r17,1
 80057c0:	81400115 	stw	r5,4(r16)
 80057c4:	20c00315 	stw	r3,12(r4)
 80057c8:	19000215 	stw	r4,8(r3)
